Archive member included because of file (symbol)

C:/Users/jon_000/Git/ALFRED_CORE/Release/arduino.ar(variant.cpp.o)
                              ./Libraries/Wire/Wire.cpp.o (g_APinDescription)
C:/Users/jon_000/Git/ALFRED_CORE/Release/arduino.ar(Print.cpp.o)
                              ./Libraries/Wire/Wire.cpp.o (Print::write(unsigned char const*, unsigned int))
C:/Users/jon_000/Git/ALFRED_CORE/Release/arduino.ar(RingBuffer.cpp.o)
                              C:/Users/jon_000/Git/ALFRED_CORE/Release/arduino.ar(variant.cpp.o) (RingBuffer::RingBuffer())
C:/Users/jon_000/Git/ALFRED_CORE/Release/arduino.ar(Stream.cpp.o)
                              ./ALFRED_CORE.cpp.o (Stream::readBytesUntil(char, char*, unsigned int))
C:/Users/jon_000/Git/ALFRED_CORE/Release/arduino.ar(UARTClass.cpp.o)
                              C:/Users/jon_000/Git/ALFRED_CORE/Release/arduino.ar(variant.cpp.o) (UARTClass::UARTClass(Uart*, IRQn, unsigned long, RingBuffer*))
C:/Users/jon_000/Git/ALFRED_CORE/Release/arduino.ar(USARTClass.cpp.o)
                              C:/Users/jon_000/Git/ALFRED_CORE/Release/arduino.ar(variant.cpp.o) (USARTClass::USARTClass(Usart*, IRQn, unsigned long, RingBuffer*))
C:/Users/jon_000/Git/ALFRED_CORE/Release/arduino.ar(WString.cpp.o)
                              C:/Users/jon_000/Git/ALFRED_CORE/Release/arduino.ar(Print.cpp.o) (String::operator[](unsigned int) const)
C:/Users/jon_000/Git/ALFRED_CORE/Release/arduino.ar(cxxabi-compat.cpp.o)
                              ./Libraries/Wire/Wire.cpp.o (__cxa_pure_virtual)
C:/Users/jon_000/Git/ALFRED_CORE/Release/arduino.ar(itoa.c.o)
                              C:/Users/jon_000/Git/ALFRED_CORE/Release/arduino.ar(WString.cpp.o) (ltoa)
C:/Users/jon_000/Git/ALFRED_CORE/Release/arduino.ar(wiring.c.o)
                              C:/Users/jon_000/Git/ALFRED_CORE/Release/arduino.ar(Stream.cpp.o) (millis)
C:/Users/jon_000/Git/ALFRED_CORE/Release/arduino.ar(wiring_analog.c.o)
                              C:/Users/jon_000/Git/ALFRED_CORE/Release/arduino.ar(variant.cpp.o) (analogOutputInit)
C:/Users/jon_000/Git/ALFRED_CORE/Release/arduino.ar(wiring_digital.c.o)
                              ./ALFRED_CORE.cpp.o (digitalWrite)
C:/Users/jon_000/Git/ALFRED_CORE/Release/arduino.ar(dtostrf.c.o)
                              C:/Users/jon_000/Git/ALFRED_CORE/Release/arduino.ar(WString.cpp.o) (dtostrf)
C:/Users/jon_000/Git/ALFRED_CORE/Release/arduino.ar(hooks.c.o)
                              C:/Users/jon_000/Git/ALFRED_CORE/Release/arduino.ar(wiring.c.o) (yield)
C:/Arduino/hardware/arduino/sam/variants/arduino_due_x/libsam_sam3x8e_gcc_rel.a(pio.o)
                              C:/Users/jon_000/Git/ALFRED_CORE/Release/arduino.ar(wiring_digital.c.o) (PIO_PullUp)
C:/Arduino/hardware/arduino/sam/variants/arduino_due_x/libsam_sam3x8e_gcc_rel.a(pmc.o)
                              ./Libraries/Wire/Wire.cpp.o (pmc_enable_periph_clk)
C:/Arduino/hardware/arduino/sam/variants/arduino_due_x/libsam_sam3x8e_gcc_rel.a(pwmc.o)
                              C:/Users/jon_000/Git/ALFRED_CORE/Release/arduino.ar(wiring_analog.c.o) (PWMC_ConfigureChannel)
C:/Arduino/hardware/arduino/sam/variants/arduino_due_x/libsam_sam3x8e_gcc_rel.a(tc.o)
                              ./Libraries/DueTimer/DueTimer.cpp.o (TC_Configure)
C:/Arduino/hardware/arduino/sam/variants/arduino_due_x/libsam_sam3x8e_gcc_rel.a(timetick.o)
                              C:/Users/jon_000/Git/ALFRED_CORE/Release/arduino.ar(wiring.c.o) (GetTickCount)
C:/Arduino/hardware/arduino/sam/variants/arduino_due_x/libsam_sam3x8e_gcc_rel.a(twi.o)
                              ./Libraries/Wire/Wire.cpp.o (TWI_ConfigureMaster)
C:/Arduino/hardware/arduino/sam/variants/arduino_due_x/libsam_sam3x8e_gcc_rel.a(wdt.o)
                              C:/Users/jon_000/Git/ALFRED_CORE/Release/arduino.ar(variant.cpp.o) (WDT_Disable)
C:/Arduino/hardware/arduino/sam/variants/arduino_due_x/libsam_sam3x8e_gcc_rel.a(system_sam3xa.o)
                              C:/Users/jon_000/Git/ALFRED_CORE/Release/arduino.ar(variant.cpp.o) (SystemInit)
C:/Arduino/hardware/arduino/sam/variants/arduino_due_x/libsam_sam3x8e_gcc_rel.a(startup_sam3xa.o)
                              (Reset_Handler)
C:/Arduino/hardware/arduino/sam/variants/arduino_due_x/libsam_sam3x8e_gcc_rel.a(adc.o)
                              C:/Users/jon_000/Git/ALFRED_CORE/Release/arduino.ar(variant.cpp.o) (adc_init)
C:/Arduino/hardware/arduino/sam/variants/arduino_due_x/libsam_sam3x8e_gcc_rel.a(uotghs.o)
                              C:/Arduino/hardware/arduino/sam/variants/arduino_due_x/libsam_sam3x8e_gcc_rel.a(startup_sam3xa.o) (UOTGHS_Handler)
C:/Arduino/hardware/arduino/sam/variants/arduino_due_x/libsam_sam3x8e_gcc_rel.a(dacc.o)
                              C:/Users/jon_000/Git/ALFRED_CORE/Release/arduino.ar(wiring_analog.c.o) (dacc_reset)
C:/Users/jon_000/Git/ALFRED_CORE/Release/arduino.ar(WInterrupts.c.o)
                              C:/Arduino/hardware/arduino/sam/variants/arduino_due_x/libsam_sam3x8e_gcc_rel.a(startup_sam3xa.o) (PIOA_Handler)
C:/Users/jon_000/Git/ALFRED_CORE/Release/arduino.ar(cortex_handlers.c.o)
                              C:/Arduino/hardware/arduino/sam/variants/arduino_due_x/libsam_sam3x8e_gcc_rel.a(startup_sam3xa.o) (SysTick_Handler)
C:/Users/jon_000/Git/ALFRED_CORE/Release/arduino.ar(main.cpp.o)
                              C:/Arduino/hardware/arduino/sam/variants/arduino_due_x/libsam_sam3x8e_gcc_rel.a(startup_sam3xa.o) (main)
C:/Users/jon_000/Git/ALFRED_CORE/Release/arduino.ar(USBCore.cpp.o)
                              C:/Users/jon_000/Git/ALFRED_CORE/Release/arduino.ar(main.cpp.o) (USBDevice_::attach())
C:/Users/jon_000/Git/ALFRED_CORE/Release/arduino.ar(Reset.cpp.o)
                              C:/Users/jon_000/Git/ALFRED_CORE/Release/arduino.ar(cortex_handlers.c.o) (tickReset)
C:/Users/jon_000/Git/ALFRED_CORE/Release/arduino.ar(CDC.cpp.o)
                              C:/Users/jon_000/Git/ALFRED_CORE/Release/arduino.ar(USBCore.cpp.o) (Serial_::accept())
C:/Users/jon_000/Git/ALFRED_CORE/Release/arduino.ar(HID.cpp.o)
                              C:/Users/jon_000/Git/ALFRED_CORE/Release/arduino.ar(USBCore.cpp.o) (HID_Setup(Setup&))
C:/Arduino/hardware/arduino/sam/variants/arduino_due_x/libsam_sam3x8e_gcc_rel.a(interrupt_sam_nvic.o)
                              C:/Users/jon_000/Git/ALFRED_CORE/Release/arduino.ar(USBCore.cpp.o) (g_interrupt_enabled)
C:/Arduino/hardware/arduino/sam/variants/arduino_due_x/libsam_sam3x8e_gcc_rel.a(uotghs_device.o)
                              C:/Users/jon_000/Git/ALFRED_CORE/Release/arduino.ar(USBCore.cpp.o) (UDD_SetStack)
c:/arduino/hardware/tools/g++_arm_none_eabi/bin/../lib/gcc/arm-none-eabi/4.4.1/../../../../arm-none-eabi/lib/thumb2\libm.a(lib_a-s_floor.o)
                              ./Libraries/I2C_PWM_Servo_Driver/Adafruit_PWMServoDriver.cpp.o (floor)
c:/arduino/hardware/tools/g++_arm_none_eabi/bin/../lib/gcc/arm-none-eabi/4.4.1/../../../../arm-none-eabi/lib/thumb2\libm.a(lib_a-s_isinfd.o)
                              C:/Users/jon_000/Git/ALFRED_CORE/Release/arduino.ar(Print.cpp.o) (__isinfd)
c:/arduino/hardware/tools/g++_arm_none_eabi/bin/../lib/gcc/arm-none-eabi/4.4.1/../../../../arm-none-eabi/lib/thumb2\libm.a(lib_a-s_isnand.o)
                              C:/Users/jon_000/Git/ALFRED_CORE/Release/arduino.ar(Print.cpp.o) (__isnand)
c:/arduino/hardware/tools/g++_arm_none_eabi/bin/../lib/gcc/arm-none-eabi/4.4.1/thumb2\libgcc.a(_arm_addsubdf3.o)
                              ./Libraries/DueTimer/DueTimer.cpp.o (__aeabi_dsub)
c:/arduino/hardware/tools/g++_arm_none_eabi/bin/../lib/gcc/arm-none-eabi/4.4.1/thumb2\libgcc.a(_arm_muldivdf3.o)
                              ./Libraries/DueTimer/DueTimer.cpp.o (__aeabi_dmul)
c:/arduino/hardware/tools/g++_arm_none_eabi/bin/../lib/gcc/arm-none-eabi/4.4.1/thumb2\libgcc.a(_arm_cmpdf2.o)
                              C:/Users/jon_000/Git/ALFRED_CORE/Release/arduino.ar(Print.cpp.o) (__aeabi_dcmplt)
c:/arduino/hardware/tools/g++_arm_none_eabi/bin/../lib/gcc/arm-none-eabi/4.4.1/thumb2\libgcc.a(_arm_fixdfsi.o)
                              ./Libraries/DueTimer/DueTimer.cpp.o (__aeabi_d2iz)
c:/arduino/hardware/tools/g++_arm_none_eabi/bin/../lib/gcc/arm-none-eabi/4.4.1/thumb2\libgcc.a(_arm_fixunsdfsi.o)
                              ./Libraries/I2C_PWM_Servo_Driver/Adafruit_PWMServoDriver.cpp.o (__aeabi_d2uiz)
c:/arduino/hardware/tools/g++_arm_none_eabi/bin/../lib/gcc/arm-none-eabi/4.4.1/thumb2\libgcc.a(_arm_truncdfsf2.o)
                              ./Libraries/DueTimer/DueTimer.cpp.o (__aeabi_d2f)
c:/arduino/hardware/tools/g++_arm_none_eabi/bin/../lib/gcc/arm-none-eabi/4.4.1/thumb2\libgcc.a(_arm_addsubsf3.o)
                              ./Libraries/I2C_PWM_Servo_Driver/Adafruit_PWMServoDriver.cpp.o (__aeabi_fsub)
c:/arduino/hardware/tools/g++_arm_none_eabi/bin/../lib/gcc/arm-none-eabi/4.4.1/thumb2\libgcc.a(_arm_muldivsf3.o)
                              C:/Users/jon_000/Git/ALFRED_CORE/Release/arduino.ar(Stream.cpp.o) (__aeabi_fmul)
c:/arduino/hardware/tools/g++_arm_none_eabi/bin/../lib/gcc/arm-none-eabi/4.4.1/thumb2\libgcc.a(_arm_cmpsf2.o)
                              ./Libraries/DueTimer/DueTimer.cpp.o (__aeabi_fcmplt)
c:/arduino/hardware/tools/g++_arm_none_eabi/bin/../lib/gcc/arm-none-eabi/4.4.1/../../../../arm-none-eabi/lib/thumb2\libc.a(lib_a-assert.o)
                              C:/Arduino/hardware/arduino/sam/variants/arduino_due_x/libsam_sam3x8e_gcc_rel.a(pwmc.o) (__assert_func)
c:/arduino/hardware/tools/g++_arm_none_eabi/bin/../lib/gcc/arm-none-eabi/4.4.1/../../../../arm-none-eabi/lib/thumb2\libc.a(lib_a-atof.o)
                              C:/Users/jon_000/Git/ALFRED_CORE/Release/arduino.ar(WString.cpp.o) (atof)
c:/arduino/hardware/tools/g++_arm_none_eabi/bin/../lib/gcc/arm-none-eabi/4.4.1/../../../../arm-none-eabi/lib/thumb2\libc.a(lib_a-atol.o)
                              C:/Users/jon_000/Git/ALFRED_CORE/Release/arduino.ar(WString.cpp.o) (atol)
c:/arduino/hardware/tools/g++_arm_none_eabi/bin/../lib/gcc/arm-none-eabi/4.4.1/../../../../arm-none-eabi/lib/thumb2\libc.a(lib_a-fiprintf.o)
                              c:/arduino/hardware/tools/g++_arm_none_eabi/bin/../lib/gcc/arm-none-eabi/4.4.1/../../../../arm-none-eabi/lib/thumb2\libc.a(lib_a-assert.o) (fiprintf)
c:/arduino/hardware/tools/g++_arm_none_eabi/bin/../lib/gcc/arm-none-eabi/4.4.1/../../../../arm-none-eabi/lib/thumb2\libc.a(lib_a-impure.o)
                              c:/arduino/hardware/tools/g++_arm_none_eabi/bin/../lib/gcc/arm-none-eabi/4.4.1/../../../../arm-none-eabi/lib/thumb2\libc.a(lib_a-assert.o) (_impure_ptr)
c:/arduino/hardware/tools/g++_arm_none_eabi/bin/../lib/gcc/arm-none-eabi/4.4.1/../../../../arm-none-eabi/lib/thumb2\libc.a(lib_a-init.o)
                              C:/Users/jon_000/Git/ALFRED_CORE/Release/arduino.ar(variant.cpp.o) (__libc_init_array)
c:/arduino/hardware/tools/g++_arm_none_eabi/bin/../lib/gcc/arm-none-eabi/4.4.1/../../../../arm-none-eabi/lib/thumb2\libc.a(lib_a-iprintf.o)
                              C:/Users/jon_000/Git/ALFRED_CORE/Release/arduino/syscalls_sam3.c.o (iprintf)
c:/arduino/hardware/tools/g++_arm_none_eabi/bin/../lib/gcc/arm-none-eabi/4.4.1/../../../../arm-none-eabi/lib/thumb2\libc.a(lib_a-isspace.o)
                              C:/Users/jon_000/Git/ALFRED_CORE/Release/arduino.ar(WString.cpp.o) (isspace)
c:/arduino/hardware/tools/g++_arm_none_eabi/bin/../lib/gcc/arm-none-eabi/4.4.1/../../../../arm-none-eabi/lib/thumb2\libc.a(lib_a-malloc.o)
                              C:/Users/jon_000/Git/ALFRED_CORE/Release/arduino.ar(WString.cpp.o) (free)
c:/arduino/hardware/tools/g++_arm_none_eabi/bin/../lib/gcc/arm-none-eabi/4.4.1/../../../../arm-none-eabi/lib/thumb2\libc.a(lib_a-mallocr.o)
                              c:/arduino/hardware/tools/g++_arm_none_eabi/bin/../lib/gcc/arm-none-eabi/4.4.1/../../../../arm-none-eabi/lib/thumb2\libc.a(lib_a-malloc.o) (_malloc_r)
c:/arduino/hardware/tools/g++_arm_none_eabi/bin/../lib/gcc/arm-none-eabi/4.4.1/../../../../arm-none-eabi/lib/thumb2\libc.a(lib_a-memcpy.o)
                              C:/Users/jon_000/Git/ALFRED_CORE/Release/arduino.ar(WString.cpp.o) (memcpy)
c:/arduino/hardware/tools/g++_arm_none_eabi/bin/../lib/gcc/arm-none-eabi/4.4.1/../../../../arm-none-eabi/lib/thumb2\libc.a(lib_a-memmove.o)
                              C:/Users/jon_000/Git/ALFRED_CORE/Release/arduino.ar(WString.cpp.o) (memmove)
c:/arduino/hardware/tools/g++_arm_none_eabi/bin/../lib/gcc/arm-none-eabi/4.4.1/../../../../arm-none-eabi/lib/thumb2\libc.a(lib_a-memset.o)
                              ./ALFRED_CORE.cpp.o (memset)
c:/arduino/hardware/tools/g++_arm_none_eabi/bin/../lib/gcc/arm-none-eabi/4.4.1/../../../../arm-none-eabi/lib/thumb2\libc.a(lib_a-mlock.o)
                              c:/arduino/hardware/tools/g++_arm_none_eabi/bin/../lib/gcc/arm-none-eabi/4.4.1/../../../../arm-none-eabi/lib/thumb2\libc.a(lib_a-mallocr.o) (__malloc_lock)
c:/arduino/hardware/tools/g++_arm_none_eabi/bin/../lib/gcc/arm-none-eabi/4.4.1/../../../../arm-none-eabi/lib/thumb2\libc.a(lib_a-realloc.o)
                              C:/Users/jon_000/Git/ALFRED_CORE/Release/arduino.ar(WString.cpp.o) (realloc)
c:/arduino/hardware/tools/g++_arm_none_eabi/bin/../lib/gcc/arm-none-eabi/4.4.1/../../../../arm-none-eabi/lib/thumb2\libc.a(lib_a-reallocr.o)
                              c:/arduino/hardware/tools/g++_arm_none_eabi/bin/../lib/gcc/arm-none-eabi/4.4.1/../../../../arm-none-eabi/lib/thumb2\libc.a(lib_a-realloc.o) (_realloc_r)
c:/arduino/hardware/tools/g++_arm_none_eabi/bin/../lib/gcc/arm-none-eabi/4.4.1/../../../../arm-none-eabi/lib/thumb2\libc.a(lib_a-sbrkr.o)
                              c:/arduino/hardware/tools/g++_arm_none_eabi/bin/../lib/gcc/arm-none-eabi/4.4.1/../../../../arm-none-eabi/lib/thumb2\libc.a(lib_a-mallocr.o) (_sbrk_r)
c:/arduino/hardware/tools/g++_arm_none_eabi/bin/../lib/gcc/arm-none-eabi/4.4.1/../../../../arm-none-eabi/lib/thumb2\libc.a(lib_a-sprintf.o)
                              C:/Users/jon_000/Git/ALFRED_CORE/Release/arduino.ar(dtostrf.c.o) (sprintf)
c:/arduino/hardware/tools/g++_arm_none_eabi/bin/../lib/gcc/arm-none-eabi/4.4.1/../../../../arm-none-eabi/lib/thumb2\libc.a(lib_a-strchr.o)
                              C:/Users/jon_000/Git/ALFRED_CORE/Release/arduino.ar(WString.cpp.o) (strchr)
c:/arduino/hardware/tools/g++_arm_none_eabi/bin/../lib/gcc/arm-none-eabi/4.4.1/../../../../arm-none-eabi/lib/thumb2\libc.a(lib_a-strcmp.o)
                              C:/Users/jon_000/Git/ALFRED_CORE/Release/arduino.ar(WString.cpp.o) (strcmp)
c:/arduino/hardware/tools/g++_arm_none_eabi/bin/../lib/gcc/arm-none-eabi/4.4.1/../../../../arm-none-eabi/lib/thumb2\libc.a(lib_a-strcpy.o)
                              C:/Users/jon_000/Git/ALFRED_CORE/Release/arduino.ar(WString.cpp.o) (strcpy)
c:/arduino/hardware/tools/g++_arm_none_eabi/bin/../lib/gcc/arm-none-eabi/4.4.1/../../../../arm-none-eabi/lib/thumb2\libc.a(lib_a-strlen.o)
                              C:/Users/jon_000/Git/ALFRED_CORE/Release/arduino.ar(Print.cpp.o) (strlen)
c:/arduino/hardware/tools/g++_arm_none_eabi/bin/../lib/gcc/arm-none-eabi/4.4.1/../../../../arm-none-eabi/lib/thumb2\libc.a(lib_a-strncmp.o)
                              C:/Users/jon_000/Git/ALFRED_CORE/Release/arduino.ar(WString.cpp.o) (strncmp)
c:/arduino/hardware/tools/g++_arm_none_eabi/bin/../lib/gcc/arm-none-eabi/4.4.1/../../../../arm-none-eabi/lib/thumb2\libc.a(lib_a-strncpy.o)
                              C:/Users/jon_000/Git/ALFRED_CORE/Release/arduino.ar(WString.cpp.o) (strncpy)
c:/arduino/hardware/tools/g++_arm_none_eabi/bin/../lib/gcc/arm-none-eabi/4.4.1/../../../../arm-none-eabi/lib/thumb2\libc.a(lib_a-strrchr.o)
                              C:/Users/jon_000/Git/ALFRED_CORE/Release/arduino.ar(WString.cpp.o) (strrchr)
c:/arduino/hardware/tools/g++_arm_none_eabi/bin/../lib/gcc/arm-none-eabi/4.4.1/../../../../arm-none-eabi/lib/thumb2\libc.a(lib_a-strstr.o)
                              C:/Users/jon_000/Git/ALFRED_CORE/Release/arduino.ar(WString.cpp.o) (strstr)
c:/arduino/hardware/tools/g++_arm_none_eabi/bin/../lib/gcc/arm-none-eabi/4.4.1/../../../../arm-none-eabi/lib/thumb2\libc.a(lib_a-strtod.o)
                              c:/arduino/hardware/tools/g++_arm_none_eabi/bin/../lib/gcc/arm-none-eabi/4.4.1/../../../../arm-none-eabi/lib/thumb2\libc.a(lib_a-atof.o) (strtod)
c:/arduino/hardware/tools/g++_arm_none_eabi/bin/../lib/gcc/arm-none-eabi/4.4.1/../../../../arm-none-eabi/lib/thumb2\libc.a(lib_a-strtol.o)
                              c:/arduino/hardware/tools/g++_arm_none_eabi/bin/../lib/gcc/arm-none-eabi/4.4.1/../../../../arm-none-eabi/lib/thumb2\libc.a(lib_a-atol.o) (_strtol_r)
c:/arduino/hardware/tools/g++_arm_none_eabi/bin/../lib/gcc/arm-none-eabi/4.4.1/../../../../arm-none-eabi/lib/thumb2\libc.a(lib_a-svfprintf.o)
                              c:/arduino/hardware/tools/g++_arm_none_eabi/bin/../lib/gcc/arm-none-eabi/4.4.1/../../../../arm-none-eabi/lib/thumb2\libc.a(lib_a-sprintf.o) (_svfprintf_r)
c:/arduino/hardware/tools/g++_arm_none_eabi/bin/../lib/gcc/arm-none-eabi/4.4.1/../../../../arm-none-eabi/lib/thumb2\libc.a(lib_a-tolower.o)
                              C:/Users/jon_000/Git/ALFRED_CORE/Release/arduino.ar(WString.cpp.o) (tolower)
c:/arduino/hardware/tools/g++_arm_none_eabi/bin/../lib/gcc/arm-none-eabi/4.4.1/../../../../arm-none-eabi/lib/thumb2\libc.a(lib_a-toupper.o)
                              C:/Users/jon_000/Git/ALFRED_CORE/Release/arduino.ar(WString.cpp.o) (toupper)
c:/arduino/hardware/tools/g++_arm_none_eabi/bin/../lib/gcc/arm-none-eabi/4.4.1/../../../../arm-none-eabi/lib/thumb2\libc.a(lib_a-vfiprintf.o)
                              c:/arduino/hardware/tools/g++_arm_none_eabi/bin/../lib/gcc/arm-none-eabi/4.4.1/../../../../arm-none-eabi/lib/thumb2\libc.a(lib_a-fiprintf.o) (_vfiprintf_r)
c:/arduino/hardware/tools/g++_arm_none_eabi/bin/../lib/gcc/arm-none-eabi/4.4.1/../../../../arm-none-eabi/lib/thumb2\libc.a(lib_a-wsetup.o)
                              c:/arduino/hardware/tools/g++_arm_none_eabi/bin/../lib/gcc/arm-none-eabi/4.4.1/../../../../arm-none-eabi/lib/thumb2\libc.a(lib_a-vfiprintf.o) (__swsetup_r)
c:/arduino/hardware/tools/g++_arm_none_eabi/bin/../lib/gcc/arm-none-eabi/4.4.1/../../../../arm-none-eabi/lib/thumb2\libc.a(lib_a-abort.o)
                              c:/arduino/hardware/tools/g++_arm_none_eabi/bin/../lib/gcc/arm-none-eabi/4.4.1/../../../../arm-none-eabi/lib/thumb2\libc.a(lib_a-assert.o) (abort)
c:/arduino/hardware/tools/g++_arm_none_eabi/bin/../lib/gcc/arm-none-eabi/4.4.1/../../../../arm-none-eabi/lib/thumb2\libc.a(lib_a-ctype_.o)
                              c:/arduino/hardware/tools/g++_arm_none_eabi/bin/../lib/gcc/arm-none-eabi/4.4.1/../../../../arm-none-eabi/lib/thumb2\libc.a(lib_a-isspace.o) (__ctype_ptr__)
c:/arduino/hardware/tools/g++_arm_none_eabi/bin/../lib/gcc/arm-none-eabi/4.4.1/../../../../arm-none-eabi/lib/thumb2\libc.a(lib_a-dtoa.o)
                              c:/arduino/hardware/tools/g++_arm_none_eabi/bin/../lib/gcc/arm-none-eabi/4.4.1/../../../../arm-none-eabi/lib/thumb2\libc.a(lib_a-svfprintf.o) (_dtoa_r)
c:/arduino/hardware/tools/g++_arm_none_eabi/bin/../lib/gcc/arm-none-eabi/4.4.1/../../../../arm-none-eabi/lib/thumb2\libc.a(lib_a-fflush.o)
                              c:/arduino/hardware/tools/g++_arm_none_eabi/bin/../lib/gcc/arm-none-eabi/4.4.1/../../../../arm-none-eabi/lib/thumb2\libc.a(lib_a-vfiprintf.o) (_fflush_r)
c:/arduino/hardware/tools/g++_arm_none_eabi/bin/../lib/gcc/arm-none-eabi/4.4.1/../../../../arm-none-eabi/lib/thumb2\libc.a(lib_a-findfp.o)
                              c:/arduino/hardware/tools/g++_arm_none_eabi/bin/../lib/gcc/arm-none-eabi/4.4.1/../../../../arm-none-eabi/lib/thumb2\libc.a(lib_a-iprintf.o) (__sinit)
c:/arduino/hardware/tools/g++_arm_none_eabi/bin/../lib/gcc/arm-none-eabi/4.4.1/../../../../arm-none-eabi/lib/thumb2\libc.a(lib_a-freer.o)
                              c:/arduino/hardware/tools/g++_arm_none_eabi/bin/../lib/gcc/arm-none-eabi/4.4.1/../../../../arm-none-eabi/lib/thumb2\libc.a(lib_a-malloc.o) (_free_r)
c:/arduino/hardware/tools/g++_arm_none_eabi/bin/../lib/gcc/arm-none-eabi/4.4.1/../../../../arm-none-eabi/lib/thumb2\libc.a(lib_a-fvwrite.o)
                              c:/arduino/hardware/tools/g++_arm_none_eabi/bin/../lib/gcc/arm-none-eabi/4.4.1/../../../../arm-none-eabi/lib/thumb2\libc.a(lib_a-vfiprintf.o) (__sfvwrite_r)
c:/arduino/hardware/tools/g++_arm_none_eabi/bin/../lib/gcc/arm-none-eabi/4.4.1/../../../../arm-none-eabi/lib/thumb2\libc.a(lib_a-fwalk.o)
                              c:/arduino/hardware/tools/g++_arm_none_eabi/bin/../lib/gcc/arm-none-eabi/4.4.1/../../../../arm-none-eabi/lib/thumb2\libc.a(lib_a-fflush.o) (_fwalk_reent)
c:/arduino/hardware/tools/g++_arm_none_eabi/bin/../lib/gcc/arm-none-eabi/4.4.1/../../../../arm-none-eabi/lib/thumb2\libc.a(lib_a-gdtoa-gethex.o)
                              c:/arduino/hardware/tools/g++_arm_none_eabi/bin/../lib/gcc/arm-none-eabi/4.4.1/../../../../arm-none-eabi/lib/thumb2\libc.a(lib_a-strtod.o) (__gethex)
c:/arduino/hardware/tools/g++_arm_none_eabi/bin/../lib/gcc/arm-none-eabi/4.4.1/../../../../arm-none-eabi/lib/thumb2\libc.a(lib_a-gdtoa-hexnan.o)
                              c:/arduino/hardware/tools/g++_arm_none_eabi/bin/../lib/gcc/arm-none-eabi/4.4.1/../../../../arm-none-eabi/lib/thumb2\libc.a(lib_a-strtod.o) (__hexnan)
c:/arduino/hardware/tools/g++_arm_none_eabi/bin/../lib/gcc/arm-none-eabi/4.4.1/../../../../arm-none-eabi/lib/thumb2\libc.a(lib_a-locale.o)
                              c:/arduino/hardware/tools/g++_arm_none_eabi/bin/../lib/gcc/arm-none-eabi/4.4.1/../../../../arm-none-eabi/lib/thumb2\libc.a(lib_a-svfprintf.o) (_localeconv_r)
c:/arduino/hardware/tools/g++_arm_none_eabi/bin/../lib/gcc/arm-none-eabi/4.4.1/../../../../arm-none-eabi/lib/thumb2\libc.a(lib_a-makebuf.o)
                              c:/arduino/hardware/tools/g++_arm_none_eabi/bin/../lib/gcc/arm-none-eabi/4.4.1/../../../../arm-none-eabi/lib/thumb2\libc.a(lib_a-wsetup.o) (__smakebuf_r)
c:/arduino/hardware/tools/g++_arm_none_eabi/bin/../lib/gcc/arm-none-eabi/4.4.1/../../../../arm-none-eabi/lib/thumb2\libc.a(lib_a-memchr.o)
                              c:/arduino/hardware/tools/g++_arm_none_eabi/bin/../lib/gcc/arm-none-eabi/4.4.1/../../../../arm-none-eabi/lib/thumb2\libc.a(lib_a-strstr.o) (memchr)
c:/arduino/hardware/tools/g++_arm_none_eabi/bin/../lib/gcc/arm-none-eabi/4.4.1/../../../../arm-none-eabi/lib/thumb2\libc.a(lib_a-memcmp.o)
                              c:/arduino/hardware/tools/g++_arm_none_eabi/bin/../lib/gcc/arm-none-eabi/4.4.1/../../../../arm-none-eabi/lib/thumb2\libc.a(lib_a-strstr.o) (memcmp)
c:/arduino/hardware/tools/g++_arm_none_eabi/bin/../lib/gcc/arm-none-eabi/4.4.1/../../../../arm-none-eabi/lib/thumb2\libc.a(lib_a-mprec.o)
                              c:/arduino/hardware/tools/g++_arm_none_eabi/bin/../lib/gcc/arm-none-eabi/4.4.1/../../../../arm-none-eabi/lib/thumb2\libc.a(lib_a-dtoa.o) (__hi0bits)
c:/arduino/hardware/tools/g++_arm_none_eabi/bin/../lib/gcc/arm-none-eabi/4.4.1/../../../../arm-none-eabi/lib/thumb2\libc.a(lib_a-reent.o)
                              c:/arduino/hardware/tools/g++_arm_none_eabi/bin/../lib/gcc/arm-none-eabi/4.4.1/../../../../arm-none-eabi/lib/thumb2\libc.a(lib_a-sbrkr.o) (errno)
c:/arduino/hardware/tools/g++_arm_none_eabi/bin/../lib/gcc/arm-none-eabi/4.4.1/../../../../arm-none-eabi/lib/thumb2\libc.a(lib_a-signal.o)
                              c:/arduino/hardware/tools/g++_arm_none_eabi/bin/../lib/gcc/arm-none-eabi/4.4.1/../../../../arm-none-eabi/lib/thumb2\libc.a(lib_a-abort.o) (raise)
c:/arduino/hardware/tools/g++_arm_none_eabi/bin/../lib/gcc/arm-none-eabi/4.4.1/../../../../arm-none-eabi/lib/thumb2\libc.a(lib_a-signalr.o)
                              c:/arduino/hardware/tools/g++_arm_none_eabi/bin/../lib/gcc/arm-none-eabi/4.4.1/../../../../arm-none-eabi/lib/thumb2\libc.a(lib_a-signal.o) (_getpid_r)
c:/arduino/hardware/tools/g++_arm_none_eabi/bin/../lib/gcc/arm-none-eabi/4.4.1/../../../../arm-none-eabi/lib/thumb2\libc.a(lib_a-stdio.o)
                              c:/arduino/hardware/tools/g++_arm_none_eabi/bin/../lib/gcc/arm-none-eabi/4.4.1/../../../../arm-none-eabi/lib/thumb2\libc.a(lib_a-findfp.o) (__sclose)
c:/arduino/hardware/tools/g++_arm_none_eabi/bin/../lib/gcc/arm-none-eabi/4.4.1/../../../../arm-none-eabi/lib/thumb2\libc.a(lib_a-writer.o)
                              c:/arduino/hardware/tools/g++_arm_none_eabi/bin/../lib/gcc/arm-none-eabi/4.4.1/../../../../arm-none-eabi/lib/thumb2\libc.a(lib_a-stdio.o) (_write_r)
c:/arduino/hardware/tools/g++_arm_none_eabi/bin/../lib/gcc/arm-none-eabi/4.4.1/../../../../arm-none-eabi/lib/thumb2\libc.a(lib_a-callocr.o)
                              c:/arduino/hardware/tools/g++_arm_none_eabi/bin/../lib/gcc/arm-none-eabi/4.4.1/../../../../arm-none-eabi/lib/thumb2\libc.a(lib_a-mprec.o) (_calloc_r)
c:/arduino/hardware/tools/g++_arm_none_eabi/bin/../lib/gcc/arm-none-eabi/4.4.1/../../../../arm-none-eabi/lib/thumb2\libc.a(lib_a-closer.o)
                              c:/arduino/hardware/tools/g++_arm_none_eabi/bin/../lib/gcc/arm-none-eabi/4.4.1/../../../../arm-none-eabi/lib/thumb2\libc.a(lib_a-stdio.o) (_close_r)
c:/arduino/hardware/tools/g++_arm_none_eabi/bin/../lib/gcc/arm-none-eabi/4.4.1/../../../../arm-none-eabi/lib/thumb2\libc.a(lib_a-fclose.o)
                              c:/arduino/hardware/tools/g++_arm_none_eabi/bin/../lib/gcc/arm-none-eabi/4.4.1/../../../../arm-none-eabi/lib/thumb2\libc.a(lib_a-findfp.o) (fclose)
c:/arduino/hardware/tools/g++_arm_none_eabi/bin/../lib/gcc/arm-none-eabi/4.4.1/../../../../arm-none-eabi/lib/thumb2\libc.a(lib_a-fstatr.o)
                              c:/arduino/hardware/tools/g++_arm_none_eabi/bin/../lib/gcc/arm-none-eabi/4.4.1/../../../../arm-none-eabi/lib/thumb2\libc.a(lib_a-makebuf.o) (_fstat_r)
c:/arduino/hardware/tools/g++_arm_none_eabi/bin/../lib/gcc/arm-none-eabi/4.4.1/../../../../arm-none-eabi/lib/thumb2\libc.a(lib_a-isattyr.o)
                              c:/arduino/hardware/tools/g++_arm_none_eabi/bin/../lib/gcc/arm-none-eabi/4.4.1/../../../../arm-none-eabi/lib/thumb2\libc.a(lib_a-makebuf.o) (_isatty_r)
c:/arduino/hardware/tools/g++_arm_none_eabi/bin/../lib/gcc/arm-none-eabi/4.4.1/../../../../arm-none-eabi/lib/thumb2\libc.a(lib_a-lseekr.o)
                              c:/arduino/hardware/tools/g++_arm_none_eabi/bin/../lib/gcc/arm-none-eabi/4.4.1/../../../../arm-none-eabi/lib/thumb2\libc.a(lib_a-stdio.o) (_lseek_r)
c:/arduino/hardware/tools/g++_arm_none_eabi/bin/../lib/gcc/arm-none-eabi/4.4.1/../../../../arm-none-eabi/lib/thumb2\libc.a(lib_a-readr.o)
                              c:/arduino/hardware/tools/g++_arm_none_eabi/bin/../lib/gcc/arm-none-eabi/4.4.1/../../../../arm-none-eabi/lib/thumb2\libc.a(lib_a-stdio.o) (_read_r)
c:/arduino/hardware/tools/g++_arm_none_eabi/bin/../lib/gcc/arm-none-eabi/4.4.1/thumb2\libgcc.a(_udivsi3.o)
                              c:/arduino/hardware/tools/g++_arm_none_eabi/bin/../lib/gcc/arm-none-eabi/4.4.1/../../../../arm-none-eabi/lib/thumb2\libc.a(lib_a-strtol.o) (__aeabi_uidiv)
c:/arduino/hardware/tools/g++_arm_none_eabi/bin/../lib/gcc/arm-none-eabi/4.4.1/thumb2\libgcc.a(_dvmd_tls.o)
                              c:/arduino/hardware/tools/g++_arm_none_eabi/bin/../lib/gcc/arm-none-eabi/4.4.1/thumb2\libgcc.a(_udivsi3.o) (__aeabi_idiv0)
c:/arduino/hardware/tools/g++_arm_none_eabi/bin/../lib/gcc/arm-none-eabi/4.4.1/thumb2\libgcc.a(_aeabi_uldivmod.o)
                              c:/arduino/hardware/tools/g++_arm_none_eabi/bin/../lib/gcc/arm-none-eabi/4.4.1/../../../../arm-none-eabi/lib/thumb2\libc.a(lib_a-svfprintf.o) (__aeabi_uldivmod)
c:/arduino/hardware/tools/g++_arm_none_eabi/bin/../lib/gcc/arm-none-eabi/4.4.1/thumb2\libgcc.a(bpabi.o)
                              c:/arduino/hardware/tools/g++_arm_none_eabi/bin/../lib/gcc/arm-none-eabi/4.4.1/thumb2\libgcc.a(_aeabi_uldivmod.o) (__gnu_uldivmod_helper)
c:/arduino/hardware/tools/g++_arm_none_eabi/bin/../lib/gcc/arm-none-eabi/4.4.1/thumb2\libgcc.a(_divdi3.o)
                              c:/arduino/hardware/tools/g++_arm_none_eabi/bin/../lib/gcc/arm-none-eabi/4.4.1/thumb2\libgcc.a(bpabi.o) (__divdi3)
c:/arduino/hardware/tools/g++_arm_none_eabi/bin/../lib/gcc/arm-none-eabi/4.4.1/thumb2\libgcc.a(_udivdi3.o)
                              c:/arduino/hardware/tools/g++_arm_none_eabi/bin/../lib/gcc/arm-none-eabi/4.4.1/thumb2\libgcc.a(bpabi.o) (__udivdi3)

Allocating common symbols
Common symbol       size              file

errno               0x4               c:/arduino/hardware/tools/g++_arm_none_eabi/bin/../lib/gcc/arm-none-eabi/4.4.1/../../../../arm-none-eabi/lib/thumb2\libc.a(lib_a-reent.o)
__hexdig            0x100             c:/arduino/hardware/tools/g++_arm_none_eabi/bin/../lib/gcc/arm-none-eabi/4.4.1/../../../../arm-none-eabi/lib/thumb2\libc.a(lib_a-gdtoa-gethex.o)

Discarded input sections

 .text          0x00000000        0x0 c:/arduino/hardware/tools/g++_arm_none_eabi/bin/../lib/gcc/arm-none-eabi/4.4.1/thumb2/crti.o
 .data          0x00000000        0x0 c:/arduino/hardware/tools/g++_arm_none_eabi/bin/../lib/gcc/arm-none-eabi/4.4.1/thumb2/crti.o
 .bss           0x00000000        0x0 c:/arduino/hardware/tools/g++_arm_none_eabi/bin/../lib/gcc/arm-none-eabi/4.4.1/thumb2/crti.o
 .data          0x00000000        0x4 c:/arduino/hardware/tools/g++_arm_none_eabi/bin/../lib/gcc/arm-none-eabi/4.4.1/thumb2/crtbegin.o
 .text          0x00000000        0x0 C:/Users/jon_000/Git/ALFRED_CORE/Release/arduino/syscalls_sam3.c.o
 .data          0x00000000        0x0 C:/Users/jon_000/Git/ALFRED_CORE/Release/arduino/syscalls_sam3.c.o
 .bss           0x00000000        0x0 C:/Users/jon_000/Git/ALFRED_CORE/Release/arduino/syscalls_sam3.c.o
 .text.link     0x00000000        0x6 C:/Users/jon_000/Git/ALFRED_CORE/Release/arduino/syscalls_sam3.c.o
 .text          0x00000000        0x0 ./ALFRED_CORE.cpp.o
 .data          0x00000000        0x0 ./ALFRED_CORE.cpp.o
 .bss           0x00000000        0x0 ./ALFRED_CORE.cpp.o
 .bss.timerCounter
                0x00000000        0x1 ./ALFRED_CORE.cpp.o
 .bss.error     0x00000000        0x1 ./ALFRED_CORE.cpp.o
 .data.servonum
                0x00000000        0x1 ./ALFRED_CORE.cpp.o
 .bss.com       0x00000000        0x1 ./ALFRED_CORE.cpp.o
 .group         0x00000000        0x8 ./Libraries/Wire/Wire.cpp.o
 .text          0x00000000        0x0 ./Libraries/Wire/Wire.cpp.o
 .data          0x00000000        0x0 ./Libraries/Wire/Wire.cpp.o
 .bss           0x00000000        0x0 ./Libraries/Wire/Wire.cpp.o
 .text._ZN7TwoWireC2EP3TwiPFvvE
                0x00000000       0x3c ./Libraries/Wire/Wire.cpp.o
 .text._ZN7TwoWire17beginTransmissionEi
                0x00000000        0x6 ./Libraries/Wire/Wire.cpp.o
 .text._ZN7TwoWire9onReceiveEPFviE
                0x00000000        0x4 ./Libraries/Wire/Wire.cpp.o
 .text._ZN7TwoWire9onRequestEPFvvE
                0x00000000        0x4 ./Libraries/Wire/Wire.cpp.o
 .text._ZN7TwoWire11requestFromEiii
                0x00000000        0xa ./Libraries/Wire/Wire.cpp.o
 .text._ZN7TwoWire11requestFromEii
                0x00000000        0xa ./Libraries/Wire/Wire.cpp.o
 .text._ZN7TwoWire5beginEh
                0x00000000       0x34 ./Libraries/Wire/Wire.cpp.o
 .text._ZN7TwoWire5beginEi
                0x00000000        0x6 ./Libraries/Wire/Wire.cpp.o
 .rodata._ZTV6Stream
                0x00000000       0x20 ./Libraries/Wire/Wire.cpp.o
 .text          0x00000000        0x0 ./Libraries/I2C_PWM_Servo_Driver/Adafruit_PWMServoDriver.cpp.o
 .data          0x00000000        0x0 ./Libraries/I2C_PWM_Servo_Driver/Adafruit_PWMServoDriver.cpp.o
 .bss           0x00000000        0x0 ./Libraries/I2C_PWM_Servo_Driver/Adafruit_PWMServoDriver.cpp.o
 .text._ZN23Adafruit_PWMServoDriverC2Eh
                0x00000000        0x4 ./Libraries/I2C_PWM_Servo_Driver/Adafruit_PWMServoDriver.cpp.o
 .text._ZN23Adafruit_PWMServoDriver6setPWMEhtt
                0x00000000       0x4c ./Libraries/I2C_PWM_Servo_Driver/Adafruit_PWMServoDriver.cpp.o
 .text          0x00000000        0x0 ./Libraries/DueTimer/DueTimer.cpp.o
 .data          0x00000000        0x0 ./Libraries/DueTimer/DueTimer.cpp.o
 .bss           0x00000000        0x0 ./Libraries/DueTimer/DueTimer.cpp.o
 .text._ZN8DueTimerC2Ei
                0x00000000        0x4 ./Libraries/DueTimer/DueTimer.cpp.o
 .text._ZN8DueTimer12getAvailableEv
                0x00000000       0x2c ./Libraries/DueTimer/DueTimer.cpp.o
 .text._ZN8DueTimer12getFrequencyEv
                0x00000000       0x14 ./Libraries/DueTimer/DueTimer.cpp.o
 .text._ZN8DueTimer9getPeriodEv
                0x00000000       0x38 ./Libraries/DueTimer/DueTimer.cpp.o
 .text          0x00000000        0x0 C:/Users/jon_000/Git/ALFRED_CORE/Release/arduino.ar(variant.cpp.o)
 .data          0x00000000        0x0 C:/Users/jon_000/Git/ALFRED_CORE/Release/arduino.ar(variant.cpp.o)
 .bss           0x00000000        0x0 C:/Users/jon_000/Git/ALFRED_CORE/Release/arduino.ar(variant.cpp.o)
 .group         0x00000000        0x8 C:/Users/jon_000/Git/ALFRED_CORE/Release/arduino.ar(Print.cpp.o)
 .text          0x00000000        0x0 C:/Users/jon_000/Git/ALFRED_CORE/Release/arduino.ar(Print.cpp.o)
 .data          0x00000000        0x0 C:/Users/jon_000/Git/ALFRED_CORE/Release/arduino.ar(Print.cpp.o)
 .bss           0x00000000        0x0 C:/Users/jon_000/Git/ALFRED_CORE/Release/arduino.ar(Print.cpp.o)
 .text._ZN5Print5printERK9Printable
                0x00000000       0x10 C:/Users/jon_000/Git/ALFRED_CORE/Release/arduino.ar(Print.cpp.o)
 .text._ZN5Print7printlnEc
                0x00000000       0x14 C:/Users/jon_000/Git/ALFRED_CORE/Release/arduino.ar(Print.cpp.o)
 .text._ZN5Print7printlnERK9Printable
                0x00000000       0x14 C:/Users/jon_000/Git/ALFRED_CORE/Release/arduino.ar(Print.cpp.o)
 .text._ZN5Print7printlnEmi
                0x00000000       0x14 C:/Users/jon_000/Git/ALFRED_CORE/Release/arduino.ar(Print.cpp.o)
 .text._ZN5Print5printEji
                0x00000000        0x4 C:/Users/jon_000/Git/ALFRED_CORE/Release/arduino.ar(Print.cpp.o)
 .text._ZN5Print7printlnEji
                0x00000000       0x14 C:/Users/jon_000/Git/ALFRED_CORE/Release/arduino.ar(Print.cpp.o)
 .text._ZN5Print7printlnEli
                0x00000000       0x14 C:/Users/jon_000/Git/ALFRED_CORE/Release/arduino.ar(Print.cpp.o)
 .text._ZN5Print5printEPK19__FlashStringHelper
                0x00000000        0x4 C:/Users/jon_000/Git/ALFRED_CORE/Release/arduino.ar(Print.cpp.o)
 .text._ZN5Print7printlnEPK19__FlashStringHelper
                0x00000000       0x14 C:/Users/jon_000/Git/ALFRED_CORE/Release/arduino.ar(Print.cpp.o)
 .text._ZN5Print5printERK6String
                0x00000000       0x34 C:/Users/jon_000/Git/ALFRED_CORE/Release/arduino.ar(Print.cpp.o)
 .text._ZN5Print7printlnERK6String
                0x00000000       0x14 C:/Users/jon_000/Git/ALFRED_CORE/Release/arduino.ar(Print.cpp.o)
 .rodata._ZTV5Print
                0x00000000       0x10 C:/Users/jon_000/Git/ALFRED_CORE/Release/arduino.ar(Print.cpp.o)
 .text          0x00000000        0x0 C:/Users/jon_000/Git/ALFRED_CORE/Release/arduino.ar(RingBuffer.cpp.o)
 .data          0x00000000        0x0 C:/Users/jon_000/Git/ALFRED_CORE/Release/arduino.ar(RingBuffer.cpp.o)
 .bss           0x00000000        0x0 C:/Users/jon_000/Git/ALFRED_CORE/Release/arduino.ar(RingBuffer.cpp.o)
 .text._ZN10RingBufferC2Ev
                0x00000000       0x16 C:/Users/jon_000/Git/ALFRED_CORE/Release/arduino.ar(RingBuffer.cpp.o)
 .text          0x00000000        0x0 C:/Users/jon_000/Git/ALFRED_CORE/Release/arduino.ar(Stream.cpp.o)
 .data          0x00000000        0x0 C:/Users/jon_000/Git/ALFRED_CORE/Release/arduino.ar(Stream.cpp.o)
 .bss           0x00000000        0x0 C:/Users/jon_000/Git/ALFRED_CORE/Release/arduino.ar(Stream.cpp.o)
 .text._ZN6Stream10setTimeoutEm
                0x00000000        0x4 C:/Users/jon_000/Git/ALFRED_CORE/Release/arduino.ar(Stream.cpp.o)
 .text._ZN6Stream9timedPeekEv
                0x00000000       0x2a C:/Users/jon_000/Git/ALFRED_CORE/Release/arduino.ar(Stream.cpp.o)
 .text._ZN6Stream13peekNextDigitEv
                0x00000000       0x26 C:/Users/jon_000/Git/ALFRED_CORE/Release/arduino.ar(Stream.cpp.o)
 .text._ZN6Stream10parseFloatEc
                0x00000000       0xa8 C:/Users/jon_000/Git/ALFRED_CORE/Release/arduino.ar(Stream.cpp.o)
 .text._ZN6Stream10parseFloatEv
                0x00000000        0x6 C:/Users/jon_000/Git/ALFRED_CORE/Release/arduino.ar(Stream.cpp.o)
 .text._ZN6Stream8parseIntEc
                0x00000000       0x50 C:/Users/jon_000/Git/ALFRED_CORE/Release/arduino.ar(Stream.cpp.o)
 .text._ZN6Stream8parseIntEv
                0x00000000        0x6 C:/Users/jon_000/Git/ALFRED_CORE/Release/arduino.ar(Stream.cpp.o)
 .text._ZN6Stream15readStringUntilEc
                0x00000000       0x30 C:/Users/jon_000/Git/ALFRED_CORE/Release/arduino.ar(Stream.cpp.o)
 .text._ZN6Stream10readStringEv
                0x00000000       0x2c C:/Users/jon_000/Git/ALFRED_CORE/Release/arduino.ar(Stream.cpp.o)
 .text._ZN6Stream9readBytesEPcj
                0x00000000       0x22 C:/Users/jon_000/Git/ALFRED_CORE/Release/arduino.ar(Stream.cpp.o)
 .text._ZN6Stream9findUntilEPcjS0_j
                0x00000000       0x64 C:/Users/jon_000/Git/ALFRED_CORE/Release/arduino.ar(Stream.cpp.o)
 .text._ZN6Stream9findUntilEPcS0_
                0x00000000       0x26 C:/Users/jon_000/Git/ALFRED_CORE/Release/arduino.ar(Stream.cpp.o)
 .text._ZN6Stream4findEPc
                0x00000000        0x6 C:/Users/jon_000/Git/ALFRED_CORE/Release/arduino.ar(Stream.cpp.o)
 .text._ZN6Stream4findEPcj
                0x00000000        0xc C:/Users/jon_000/Git/ALFRED_CORE/Release/arduino.ar(Stream.cpp.o)
 .rodata.str1.1
                0x00000000        0x1 C:/Users/jon_000/Git/ALFRED_CORE/Release/arduino.ar(Stream.cpp.o)
 .group         0x00000000        0x8 C:/Users/jon_000/Git/ALFRED_CORE/Release/arduino.ar(UARTClass.cpp.o)
 .group         0x00000000        0x8 C:/Users/jon_000/Git/ALFRED_CORE/Release/arduino.ar(UARTClass.cpp.o)
 .group         0x00000000        0x8 C:/Users/jon_000/Git/ALFRED_CORE/Release/arduino.ar(UARTClass.cpp.o)
 .text          0x00000000        0x0 C:/Users/jon_000/Git/ALFRED_CORE/Release/arduino.ar(UARTClass.cpp.o)
 .data          0x00000000        0x0 C:/Users/jon_000/Git/ALFRED_CORE/Release/arduino.ar(UARTClass.cpp.o)
 .bss           0x00000000        0x0 C:/Users/jon_000/Git/ALFRED_CORE/Release/arduino.ar(UARTClass.cpp.o)
 .text._ZN9UARTClassC2EP4Uart4IRQnmP10RingBuffer
                0x00000000       0x24 C:/Users/jon_000/Git/ALFRED_CORE/Release/arduino.ar(UARTClass.cpp.o)
 .text._ZN9UARTClass3endEv
                0x00000000       0x38 C:/Users/jon_000/Git/ALFRED_CORE/Release/arduino.ar(UARTClass.cpp.o)
 .rodata._ZTV14HardwareSerial
                0x00000000       0x28 C:/Users/jon_000/Git/ALFRED_CORE/Release/arduino.ar(UARTClass.cpp.o)
 .rodata._ZTV6Stream
                0x00000000       0x20 C:/Users/jon_000/Git/ALFRED_CORE/Release/arduino.ar(UARTClass.cpp.o)
 .group         0x00000000        0x8 C:/Users/jon_000/Git/ALFRED_CORE/Release/arduino.ar(USARTClass.cpp.o)
 .group         0x00000000        0x8 C:/Users/jon_000/Git/ALFRED_CORE/Release/arduino.ar(USARTClass.cpp.o)
 .group         0x00000000        0x8 C:/Users/jon_000/Git/ALFRED_CORE/Release/arduino.ar(USARTClass.cpp.o)
 .text          0x00000000        0x0 C:/Users/jon_000/Git/ALFRED_CORE/Release/arduino.ar(USARTClass.cpp.o)
 .data          0x00000000        0x0 C:/Users/jon_000/Git/ALFRED_CORE/Release/arduino.ar(USARTClass.cpp.o)
 .bss           0x00000000        0x0 C:/Users/jon_000/Git/ALFRED_CORE/Release/arduino.ar(USARTClass.cpp.o)
 .text._ZN10USARTClassC2EP5Usart4IRQnmP10RingBuffer
                0x00000000       0x24 C:/Users/jon_000/Git/ALFRED_CORE/Release/arduino.ar(USARTClass.cpp.o)
 .text._ZN10USARTClass3endEv
                0x00000000       0x38 C:/Users/jon_000/Git/ALFRED_CORE/Release/arduino.ar(USARTClass.cpp.o)
 .rodata._ZTV14HardwareSerial
                0x00000000       0x28 C:/Users/jon_000/Git/ALFRED_CORE/Release/arduino.ar(USARTClass.cpp.o)
 .rodata._ZTV6Stream
                0x00000000       0x20 C:/Users/jon_000/Git/ALFRED_CORE/Release/arduino.ar(USARTClass.cpp.o)
 .text          0x00000000        0x0 C:/Users/jon_000/Git/ALFRED_CORE/Release/arduino.ar(WString.cpp.o)
 .data          0x00000000        0x0 C:/Users/jon_000/Git/ALFRED_CORE/Release/arduino.ar(WString.cpp.o)
 .bss           0x00000000        0x0 C:/Users/jon_000/Git/ALFRED_CORE/Release/arduino.ar(WString.cpp.o)
 .text._ZN6String9setCharAtEjc
                0x00000000        0xc C:/Users/jon_000/Git/ALFRED_CORE/Release/arduino.ar(WString.cpp.o)
 .text._ZN6StringixEj
                0x00000000       0x1c C:/Users/jon_000/Git/ALFRED_CORE/Release/arduino.ar(WString.cpp.o)
 .text._ZNK6StringixEj
                0x00000000       0x12 C:/Users/jon_000/Git/ALFRED_CORE/Release/arduino.ar(WString.cpp.o)
 .text._ZNK6String6charAtEj
                0x00000000        0x4 C:/Users/jon_000/Git/ALFRED_CORE/Release/arduino.ar(WString.cpp.o)
 .text._ZN6String7replaceEcc
                0x00000000       0x1a C:/Users/jon_000/Git/ALFRED_CORE/Release/arduino.ar(WString.cpp.o)
 .text._ZNK6String7toFloatEv
                0x00000000       0x14 C:/Users/jon_000/Git/ALFRED_CORE/Release/arduino.ar(WString.cpp.o)
 .text._ZNK6String5toIntEv
                0x00000000        0xa C:/Users/jon_000/Git/ALFRED_CORE/Release/arduino.ar(WString.cpp.o)
 .text._ZN6String4trimEv
                0x00000000       0x4c C:/Users/jon_000/Git/ALFRED_CORE/Release/arduino.ar(WString.cpp.o)
 .text._ZN6String11toUpperCaseEv
                0x00000000       0x1a C:/Users/jon_000/Git/ALFRED_CORE/Release/arduino.ar(WString.cpp.o)
 .text._ZN6String11toLowerCaseEv
                0x00000000       0x1a C:/Users/jon_000/Git/ALFRED_CORE/Release/arduino.ar(WString.cpp.o)
 .text._ZNK6String16equalsIgnoreCaseERKS_
                0x00000000       0x38 C:/Users/jon_000/Git/ALFRED_CORE/Release/arduino.ar(WString.cpp.o)
 .text._ZN6String6removeEjj
                0x00000000       0x32 C:/Users/jon_000/Git/ALFRED_CORE/Release/arduino.ar(WString.cpp.o)
 .text._ZN6String6removeEj
                0x00000000        0xe C:/Users/jon_000/Git/ALFRED_CORE/Release/arduino.ar(WString.cpp.o)
 .text._ZNK6String8getBytesEPhjj
                0x00000000       0x30 C:/Users/jon_000/Git/ALFRED_CORE/Release/arduino.ar(WString.cpp.o)
 .text._ZNK6String11lastIndexOfERKS_j
                0x00000000       0x44 C:/Users/jon_000/Git/ALFRED_CORE/Release/arduino.ar(WString.cpp.o)
 .text._ZNK6String11lastIndexOfERKS_
                0x00000000        0xa C:/Users/jon_000/Git/ALFRED_CORE/Release/arduino.ar(WString.cpp.o)
 .text._ZNK6String7indexOfERKS_j
                0x00000000       0x22 C:/Users/jon_000/Git/ALFRED_CORE/Release/arduino.ar(WString.cpp.o)
 .text._ZNK6String7indexOfERKS_
                0x00000000        0x6 C:/Users/jon_000/Git/ALFRED_CORE/Release/arduino.ar(WString.cpp.o)
 .text._ZNK6String11lastIndexOfEcj
                0x00000000       0x32 C:/Users/jon_000/Git/ALFRED_CORE/Release/arduino.ar(WString.cpp.o)
 .text._ZNK6String11lastIndexOfEc
                0x00000000        0x8 C:/Users/jon_000/Git/ALFRED_CORE/Release/arduino.ar(WString.cpp.o)
 .text._ZNK6String7indexOfEcj
                0x00000000       0x20 C:/Users/jon_000/Git/ALFRED_CORE/Release/arduino.ar(WString.cpp.o)
 .text._ZNK6String7indexOfEc
                0x00000000        0x6 C:/Users/jon_000/Git/ALFRED_CORE/Release/arduino.ar(WString.cpp.o)
 .text._ZNK6String8endsWithERKS_
                0x00000000       0x28 C:/Users/jon_000/Git/ALFRED_CORE/Release/arduino.ar(WString.cpp.o)
 .text._ZNK6String6equalsEPKc
                0x00000000       0x2e C:/Users/jon_000/Git/ALFRED_CORE/Release/arduino.ar(WString.cpp.o)
 .text._ZNK6String9compareToERKS_
                0x00000000       0x2c C:/Users/jon_000/Git/ALFRED_CORE/Release/arduino.ar(WString.cpp.o)
 .text._ZNK6StringgeERKS_
                0x00000000        0xc C:/Users/jon_000/Git/ALFRED_CORE/Release/arduino.ar(WString.cpp.o)
 .text._ZNK6StringleERKS_
                0x00000000       0x10 C:/Users/jon_000/Git/ALFRED_CORE/Release/arduino.ar(WString.cpp.o)
 .text._ZNK6StringgtERKS_
                0x00000000       0x10 C:/Users/jon_000/Git/ALFRED_CORE/Release/arduino.ar(WString.cpp.o)
 .text._ZNK6StringltERKS_
                0x00000000        0xa C:/Users/jon_000/Git/ALFRED_CORE/Release/arduino.ar(WString.cpp.o)
 .text._ZNK6String6equalsERKS_
                0x00000000       0x1c C:/Users/jon_000/Git/ALFRED_CORE/Release/arduino.ar(WString.cpp.o)
 .text._ZNK6String10startsWithERKS_j
                0x00000000       0x2c C:/Users/jon_000/Git/ALFRED_CORE/Release/arduino.ar(WString.cpp.o)
 .text._ZNK6String10startsWithERKS_
                0x00000000       0x12 C:/Users/jon_000/Git/ALFRED_CORE/Release/arduino.ar(WString.cpp.o)
 .text._ZN6String12changeBufferEj
                0x00000000       0x1a C:/Users/jon_000/Git/ALFRED_CORE/Release/arduino.ar(WString.cpp.o)
 .text._ZN6String7replaceERKS_S1_
                0x00000000      0x112 C:/Users/jon_000/Git/ALFRED_CORE/Release/arduino.ar(WString.cpp.o)
 .text._ZN6String7reserveEj
                0x00000000       0x28 C:/Users/jon_000/Git/ALFRED_CORE/Release/arduino.ar(WString.cpp.o)
 .text._ZN6String6concatEPK19__FlashStringHelper
                0x00000000       0x38 C:/Users/jon_000/Git/ALFRED_CORE/Release/arduino.ar(WString.cpp.o)
 .text._ZN6String6concatEPKcj
                0x00000000       0x2c C:/Users/jon_000/Git/ALFRED_CORE/Release/arduino.ar(WString.cpp.o)
 .text._ZN6String6concatEd
                0x00000000       0x2a C:/Users/jon_000/Git/ALFRED_CORE/Release/arduino.ar(WString.cpp.o)
 .text._ZN6String6concatEf
                0x00000000       0x2c C:/Users/jon_000/Git/ALFRED_CORE/Release/arduino.ar(WString.cpp.o)
 .text._ZN6String6concatEm
                0x00000000       0x26 C:/Users/jon_000/Git/ALFRED_CORE/Release/arduino.ar(WString.cpp.o)
 .text._ZN6String6concatEl
                0x00000000       0x26 C:/Users/jon_000/Git/ALFRED_CORE/Release/arduino.ar(WString.cpp.o)
 .text._ZN6String6concatEj
                0x00000000       0x26 C:/Users/jon_000/Git/ALFRED_CORE/Release/arduino.ar(WString.cpp.o)
 .text._ZN6String6concatEi
                0x00000000       0x26 C:/Users/jon_000/Git/ALFRED_CORE/Release/arduino.ar(WString.cpp.o)
 .text._ZN6String6concatEh
                0x00000000       0x22 C:/Users/jon_000/Git/ALFRED_CORE/Release/arduino.ar(WString.cpp.o)
 .text._ZN6String6concatEc
                0x00000000       0x16 C:/Users/jon_000/Git/ALFRED_CORE/Release/arduino.ar(WString.cpp.o)
 .text._ZN6String6concatEPKc
                0x00000000       0x20 C:/Users/jon_000/Git/ALFRED_CORE/Release/arduino.ar(WString.cpp.o)
 .text._ZN6String6concatERKS_
                0x00000000        0xa C:/Users/jon_000/Git/ALFRED_CORE/Release/arduino.ar(WString.cpp.o)
 .text._ZN6String10invalidateEv
                0x00000000       0x16 C:/Users/jon_000/Git/ALFRED_CORE/Release/arduino.ar(WString.cpp.o)
 .text._ZplRK15StringSumHelperPK19__FlashStringHelper
                0x00000000       0x14 C:/Users/jon_000/Git/ALFRED_CORE/Release/arduino.ar(WString.cpp.o)
 .text._ZplRK15StringSumHelperd
                0x00000000       0x14 C:/Users/jon_000/Git/ALFRED_CORE/Release/arduino.ar(WString.cpp.o)
 .text._ZplRK15StringSumHelperf
                0x00000000       0x14 C:/Users/jon_000/Git/ALFRED_CORE/Release/arduino.ar(WString.cpp.o)
 .text._ZplRK15StringSumHelperm
                0x00000000       0x14 C:/Users/jon_000/Git/ALFRED_CORE/Release/arduino.ar(WString.cpp.o)
 .text._ZplRK15StringSumHelperl
                0x00000000       0x14 C:/Users/jon_000/Git/ALFRED_CORE/Release/arduino.ar(WString.cpp.o)
 .text._ZplRK15StringSumHelperj
                0x00000000       0x14 C:/Users/jon_000/Git/ALFRED_CORE/Release/arduino.ar(WString.cpp.o)
 .text._ZplRK15StringSumHelperi
                0x00000000       0x14 C:/Users/jon_000/Git/ALFRED_CORE/Release/arduino.ar(WString.cpp.o)
 .text._ZplRK15StringSumHelperh
                0x00000000       0x14 C:/Users/jon_000/Git/ALFRED_CORE/Release/arduino.ar(WString.cpp.o)
 .text._ZplRK15StringSumHelperc
                0x00000000       0x14 C:/Users/jon_000/Git/ALFRED_CORE/Release/arduino.ar(WString.cpp.o)
 .text._ZplRK15StringSumHelperPKc
                0x00000000       0x24 C:/Users/jon_000/Git/ALFRED_CORE/Release/arduino.ar(WString.cpp.o)
 .text._ZplRK15StringSumHelperRK6String
                0x00000000       0x1a C:/Users/jon_000/Git/ALFRED_CORE/Release/arduino.ar(WString.cpp.o)
 .text._ZN6String4copyEPK19__FlashStringHelperj
                0x00000000       0x26 C:/Users/jon_000/Git/ALFRED_CORE/Release/arduino.ar(WString.cpp.o)
 .text._ZN6StringaSEPK19__FlashStringHelper
                0x00000000       0x22 C:/Users/jon_000/Git/ALFRED_CORE/Release/arduino.ar(WString.cpp.o)
 .text._ZN6StringC1EPK19__FlashStringHelper
                0x00000000       0x14 C:/Users/jon_000/Git/ALFRED_CORE/Release/arduino.ar(WString.cpp.o)
 .text._ZN6StringC2EPK19__FlashStringHelper
                0x00000000       0x14 C:/Users/jon_000/Git/ALFRED_CORE/Release/arduino.ar(WString.cpp.o)
 .text._ZN6String4copyEPKcj
                0x00000000       0x26 C:/Users/jon_000/Git/ALFRED_CORE/Release/arduino.ar(WString.cpp.o)
 .text._ZN6StringC1EPKc
                0x00000000       0x24 C:/Users/jon_000/Git/ALFRED_CORE/Release/arduino.ar(WString.cpp.o)
 .text._ZN6StringC2EPKc
                0x00000000       0x24 C:/Users/jon_000/Git/ALFRED_CORE/Release/arduino.ar(WString.cpp.o)
 .text._ZN6StringaSEPKc
                0x00000000       0x22 C:/Users/jon_000/Git/ALFRED_CORE/Release/arduino.ar(WString.cpp.o)
 .text._ZN6StringC1Edh
                0x00000000       0x36 C:/Users/jon_000/Git/ALFRED_CORE/Release/arduino.ar(WString.cpp.o)
 .text._ZN6StringC2Edh
                0x00000000       0x36 C:/Users/jon_000/Git/ALFRED_CORE/Release/arduino.ar(WString.cpp.o)
 .text._ZN6StringC1Efh
                0x00000000       0x32 C:/Users/jon_000/Git/ALFRED_CORE/Release/arduino.ar(WString.cpp.o)
 .text._ZN6StringC2Efh
                0x00000000       0x32 C:/Users/jon_000/Git/ALFRED_CORE/Release/arduino.ar(WString.cpp.o)
 .text._ZN6StringC1Emh
                0x00000000       0x26 C:/Users/jon_000/Git/ALFRED_CORE/Release/arduino.ar(WString.cpp.o)
 .text._ZN6StringC2Emh
                0x00000000       0x26 C:/Users/jon_000/Git/ALFRED_CORE/Release/arduino.ar(WString.cpp.o)
 .text._ZN6StringC1Elh
                0x00000000       0x26 C:/Users/jon_000/Git/ALFRED_CORE/Release/arduino.ar(WString.cpp.o)
 .text._ZN6StringC2Elh
                0x00000000       0x26 C:/Users/jon_000/Git/ALFRED_CORE/Release/arduino.ar(WString.cpp.o)
 .text._ZN6StringC1Ejh
                0x00000000       0x26 C:/Users/jon_000/Git/ALFRED_CORE/Release/arduino.ar(WString.cpp.o)
 .text._ZN6StringC2Ejh
                0x00000000       0x26 C:/Users/jon_000/Git/ALFRED_CORE/Release/arduino.ar(WString.cpp.o)
 .text._ZN6StringC1Eih
                0x00000000       0x26 C:/Users/jon_000/Git/ALFRED_CORE/Release/arduino.ar(WString.cpp.o)
 .text._ZN6StringC2Eih
                0x00000000       0x26 C:/Users/jon_000/Git/ALFRED_CORE/Release/arduino.ar(WString.cpp.o)
 .text._ZN6StringC1Ehh
                0x00000000       0x26 C:/Users/jon_000/Git/ALFRED_CORE/Release/arduino.ar(WString.cpp.o)
 .text._ZN6StringC2Ehh
                0x00000000       0x26 C:/Users/jon_000/Git/ALFRED_CORE/Release/arduino.ar(WString.cpp.o)
 .text._ZN6StringC1Ec
                0x00000000       0x1e C:/Users/jon_000/Git/ALFRED_CORE/Release/arduino.ar(WString.cpp.o)
 .text._ZN6StringC2Ec
                0x00000000       0x1e C:/Users/jon_000/Git/ALFRED_CORE/Release/arduino.ar(WString.cpp.o)
 .text._ZNK6String9substringEjj
                0x00000000       0x4c C:/Users/jon_000/Git/ALFRED_CORE/Release/arduino.ar(WString.cpp.o)
 .text._ZN6StringaSERKS_
                0x00000000       0x1e C:/Users/jon_000/Git/ALFRED_CORE/Release/arduino.ar(WString.cpp.o)
 .text._ZN6StringC1ERKS_
                0x00000000       0x14 C:/Users/jon_000/Git/ALFRED_CORE/Release/arduino.ar(WString.cpp.o)
 .text._ZN6StringC2ERKS_
                0x00000000       0x14 C:/Users/jon_000/Git/ALFRED_CORE/Release/arduino.ar(WString.cpp.o)
 .text._ZN6StringD1Ev
                0x00000000        0xe C:/Users/jon_000/Git/ALFRED_CORE/Release/arduino.ar(WString.cpp.o)
 .text._ZN6StringD2Ev
                0x00000000        0xe C:/Users/jon_000/Git/ALFRED_CORE/Release/arduino.ar(WString.cpp.o)
 .rodata.str1.1
                0x00000000        0x1 C:/Users/jon_000/Git/ALFRED_CORE/Release/arduino.ar(WString.cpp.o)
 .bss._ZZN6StringixEjE19dummy_writable_char
                0x00000000        0x1 C:/Users/jon_000/Git/ALFRED_CORE/Release/arduino.ar(WString.cpp.o)
 .text          0x00000000        0x0 C:/Users/jon_000/Git/ALFRED_CORE/Release/arduino.ar(cxxabi-compat.cpp.o)
 .data          0x00000000        0x0 C:/Users/jon_000/Git/ALFRED_CORE/Release/arduino.ar(cxxabi-compat.cpp.o)
 .bss           0x00000000        0x0 C:/Users/jon_000/Git/ALFRED_CORE/Release/arduino.ar(cxxabi-compat.cpp.o)
 .text.__cxa_pure_virtual
                0x00000000        0x2 C:/Users/jon_000/Git/ALFRED_CORE/Release/arduino.ar(cxxabi-compat.cpp.o)
 .text          0x00000000        0x0 C:/Users/jon_000/Git/ALFRED_CORE/Release/arduino.ar(itoa.c.o)
 .data          0x00000000        0x0 C:/Users/jon_000/Git/ALFRED_CORE/Release/arduino.ar(itoa.c.o)
 .bss           0x00000000        0x0 C:/Users/jon_000/Git/ALFRED_CORE/Release/arduino.ar(itoa.c.o)
 .text.ltoa     0x00000000       0x88 C:/Users/jon_000/Git/ALFRED_CORE/Release/arduino.ar(itoa.c.o)
 .text.itoa     0x00000000        0x4 C:/Users/jon_000/Git/ALFRED_CORE/Release/arduino.ar(itoa.c.o)
 .text.ultoa    0x00000000       0x6a C:/Users/jon_000/Git/ALFRED_CORE/Release/arduino.ar(itoa.c.o)
 .text.utoa     0x00000000        0x4 C:/Users/jon_000/Git/ALFRED_CORE/Release/arduino.ar(itoa.c.o)
 .text          0x00000000        0x0 C:/Users/jon_000/Git/ALFRED_CORE/Release/arduino.ar(wiring.c.o)
 .data          0x00000000        0x0 C:/Users/jon_000/Git/ALFRED_CORE/Release/arduino.ar(wiring.c.o)
 .bss           0x00000000        0x0 C:/Users/jon_000/Git/ALFRED_CORE/Release/arduino.ar(wiring.c.o)
 .text.micros   0x00000000       0x7c C:/Users/jon_000/Git/ALFRED_CORE/Release/arduino.ar(wiring.c.o)
 .text          0x00000000        0x0 C:/Users/jon_000/Git/ALFRED_CORE/Release/arduino.ar(wiring_analog.c.o)
 .data          0x00000000        0x0 C:/Users/jon_000/Git/ALFRED_CORE/Release/arduino.ar(wiring_analog.c.o)
 .bss           0x00000000        0x0 C:/Users/jon_000/Git/ALFRED_CORE/Release/arduino.ar(wiring_analog.c.o)
 .text.analogReadResolution
                0x00000000        0xc C:/Users/jon_000/Git/ALFRED_CORE/Release/arduino.ar(wiring_analog.c.o)
 .text.analogWriteResolution
                0x00000000        0xc C:/Users/jon_000/Git/ALFRED_CORE/Release/arduino.ar(wiring_analog.c.o)
 .text.analogReference
                0x00000000        0xc C:/Users/jon_000/Git/ALFRED_CORE/Release/arduino.ar(wiring_analog.c.o)
 .text.TC_SetCMR_ChannelA
                0x00000000       0x12 C:/Users/jon_000/Git/ALFRED_CORE/Release/arduino.ar(wiring_analog.c.o)
 .text.TC_SetCMR_ChannelB
                0x00000000       0x12 C:/Users/jon_000/Git/ALFRED_CORE/Release/arduino.ar(wiring_analog.c.o)
 .text.analogWrite
                0x00000000      0x2bc C:/Users/jon_000/Git/ALFRED_CORE/Release/arduino.ar(wiring_analog.c.o)
 .text.analogRead
                0x00000000       0x74 C:/Users/jon_000/Git/ALFRED_CORE/Release/arduino.ar(wiring_analog.c.o)
 .rodata.channelToAB.6885
                0x00000000       0x48 C:/Users/jon_000/Git/ALFRED_CORE/Release/arduino.ar(wiring_analog.c.o)
 .bss.PWMEnabled
                0x00000000        0x1 C:/Users/jon_000/Git/ALFRED_CORE/Release/arduino.ar(wiring_analog.c.o)
 .data._writeResolution
                0x00000000        0x4 C:/Users/jon_000/Git/ALFRED_CORE/Release/arduino.ar(wiring_analog.c.o)
 .bss.TCChanEnabled
                0x00000000        0xc C:/Users/jon_000/Git/ALFRED_CORE/Release/arduino.ar(wiring_analog.c.o)
 .data.latestSelectedChannel.6807
                0x00000000        0x4 C:/Users/jon_000/Git/ALFRED_CORE/Release/arduino.ar(wiring_analog.c.o)
 .rodata.channelToChNo.6884
                0x00000000       0x48 C:/Users/jon_000/Git/ALFRED_CORE/Release/arduino.ar(wiring_analog.c.o)
 .bss.analog_reference
                0x00000000        0x1 C:/Users/jon_000/Git/ALFRED_CORE/Release/arduino.ar(wiring_analog.c.o)
 .rodata.channelToId.6887
                0x00000000       0x48 C:/Users/jon_000/Git/ALFRED_CORE/Release/arduino.ar(wiring_analog.c.o)
 .rodata.channelToTC.6886
                0x00000000       0x48 C:/Users/jon_000/Git/ALFRED_CORE/Release/arduino.ar(wiring_analog.c.o)
 .data._readResolution
                0x00000000        0x4 C:/Users/jon_000/Git/ALFRED_CORE/Release/arduino.ar(wiring_analog.c.o)
 .text          0x00000000        0x0 C:/Users/jon_000/Git/ALFRED_CORE/Release/arduino.ar(wiring_digital.c.o)
 .data          0x00000000        0x0 C:/Users/jon_000/Git/ALFRED_CORE/Release/arduino.ar(wiring_digital.c.o)
 .bss           0x00000000        0x0 C:/Users/jon_000/Git/ALFRED_CORE/Release/arduino.ar(wiring_digital.c.o)
 .text.digitalRead
                0x00000000       0x28 C:/Users/jon_000/Git/ALFRED_CORE/Release/arduino.ar(wiring_digital.c.o)
 .text          0x00000000        0x0 C:/Users/jon_000/Git/ALFRED_CORE/Release/arduino.ar(dtostrf.c.o)
 .data          0x00000000        0x0 C:/Users/jon_000/Git/ALFRED_CORE/Release/arduino.ar(dtostrf.c.o)
 .bss           0x00000000        0x0 C:/Users/jon_000/Git/ALFRED_CORE/Release/arduino.ar(dtostrf.c.o)
 .text.dtostrf  0x00000000       0x2c C:/Users/jon_000/Git/ALFRED_CORE/Release/arduino.ar(dtostrf.c.o)
 .rodata.str1.1
                0x00000000        0x9 C:/Users/jon_000/Git/ALFRED_CORE/Release/arduino.ar(dtostrf.c.o)
 .text          0x00000000        0x0 C:/Users/jon_000/Git/ALFRED_CORE/Release/arduino.ar(hooks.c.o)
 .data          0x00000000        0x0 C:/Users/jon_000/Git/ALFRED_CORE/Release/arduino.ar(hooks.c.o)
 .bss           0x00000000        0x0 C:/Users/jon_000/Git/ALFRED_CORE/Release/arduino.ar(hooks.c.o)
 .text          0x00000000        0x0 C:/Arduino/hardware/arduino/sam/variants/arduino_due_x/libsam_sam3x8e_gcc_rel.a(pio.o)
 .data          0x00000000        0x0 C:/Arduino/hardware/arduino/sam/variants/arduino_due_x/libsam_sam3x8e_gcc_rel.a(pio.o)
 .bss           0x00000000        0x0 C:/Arduino/hardware/arduino/sam/variants/arduino_due_x/libsam_sam3x8e_gcc_rel.a(pio.o)
 .text.PIO_SetDebounceFilter
                0x00000000       0x1a C:/Arduino/hardware/arduino/sam/variants/arduino_due_x/libsam_sam3x8e_gcc_rel.a(pio.o)
 .text.PIO_Set  0x00000000        0x4 C:/Arduino/hardware/arduino/sam/variants/arduino_due_x/libsam_sam3x8e_gcc_rel.a(pio.o)
 .text.PIO_Get  0x00000000       0x16 C:/Arduino/hardware/arduino/sam/variants/arduino_due_x/libsam_sam3x8e_gcc_rel.a(pio.o)
 .text.PIO_Clear
                0x00000000        0x4 C:/Arduino/hardware/arduino/sam/variants/arduino_due_x/libsam_sam3x8e_gcc_rel.a(pio.o)
 .text          0x00000000        0x0 C:/Arduino/hardware/arduino/sam/variants/arduino_due_x/libsam_sam3x8e_gcc_rel.a(pmc.o)
 .data          0x00000000        0x0 C:/Arduino/hardware/arduino/sam/variants/arduino_due_x/libsam_sam3x8e_gcc_rel.a(pmc.o)
 .bss           0x00000000        0x0 C:/Arduino/hardware/arduino/sam/variants/arduino_due_x/libsam_sam3x8e_gcc_rel.a(pmc.o)
 .text.pmc_mck_set_prescaler
                0x00000000       0x20 C:/Arduino/hardware/arduino/sam/variants/arduino_due_x/libsam_sam3x8e_gcc_rel.a(pmc.o)
 .text.pmc_mck_set_source
                0x00000000       0x20 C:/Arduino/hardware/arduino/sam/variants/arduino_due_x/libsam_sam3x8e_gcc_rel.a(pmc.o)
 .text.pmc_switch_mck_to_sclk
                0x00000000       0x4c C:/Arduino/hardware/arduino/sam/variants/arduino_due_x/libsam_sam3x8e_gcc_rel.a(pmc.o)
 .text.pmc_switch_mck_to_mainck
                0x00000000       0x50 C:/Arduino/hardware/arduino/sam/variants/arduino_due_x/libsam_sam3x8e_gcc_rel.a(pmc.o)
 .text.pmc_switch_mck_to_pllack
                0x00000000       0x54 C:/Arduino/hardware/arduino/sam/variants/arduino_due_x/libsam_sam3x8e_gcc_rel.a(pmc.o)
 .text.pmc_switch_mck_to_upllck
                0x00000000       0x50 C:/Arduino/hardware/arduino/sam/variants/arduino_due_x/libsam_sam3x8e_gcc_rel.a(pmc.o)
 .text.pmc_switch_sclk_to_32kxtal
                0x00000000       0x28 C:/Arduino/hardware/arduino/sam/variants/arduino_due_x/libsam_sam3x8e_gcc_rel.a(pmc.o)
 .text.pmc_osc_is_ready_32kxtal
                0x00000000       0x1c C:/Arduino/hardware/arduino/sam/variants/arduino_due_x/libsam_sam3x8e_gcc_rel.a(pmc.o)
 .text.pmc_switch_mainck_to_fastrc
                0x00000000       0x74 C:/Arduino/hardware/arduino/sam/variants/arduino_due_x/libsam_sam3x8e_gcc_rel.a(pmc.o)
 .text.pmc_osc_enable_fastrc
                0x00000000       0x20 C:/Arduino/hardware/arduino/sam/variants/arduino_due_x/libsam_sam3x8e_gcc_rel.a(pmc.o)
 .text.pmc_osc_disable_fastrc
                0x00000000       0x18 C:/Arduino/hardware/arduino/sam/variants/arduino_due_x/libsam_sam3x8e_gcc_rel.a(pmc.o)
 .text.pmc_switch_mainck_to_xtal
                0x00000000       0x50 C:/Arduino/hardware/arduino/sam/variants/arduino_due_x/libsam_sam3x8e_gcc_rel.a(pmc.o)
 .text.pmc_osc_disable_xtal
                0x00000000       0x28 C:/Arduino/hardware/arduino/sam/variants/arduino_due_x/libsam_sam3x8e_gcc_rel.a(pmc.o)
 .text.pmc_osc_is_ready_mainck
                0x00000000       0x10 C:/Arduino/hardware/arduino/sam/variants/arduino_due_x/libsam_sam3x8e_gcc_rel.a(pmc.o)
 .text.pmc_disable_pllack
                0x00000000       0x10 C:/Arduino/hardware/arduino/sam/variants/arduino_due_x/libsam_sam3x8e_gcc_rel.a(pmc.o)
 .text.pmc_enable_pllack
                0x00000000       0x44 C:/Arduino/hardware/arduino/sam/variants/arduino_due_x/libsam_sam3x8e_gcc_rel.a(pmc.o)
 .text.pmc_is_locked_pllack
                0x00000000       0x10 C:/Arduino/hardware/arduino/sam/variants/arduino_due_x/libsam_sam3x8e_gcc_rel.a(pmc.o)
 .text.pmc_disable_upll_clock
                0x00000000       0x10 C:/Arduino/hardware/arduino/sam/variants/arduino_due_x/libsam_sam3x8e_gcc_rel.a(pmc.o)
 .text.pmc_is_locked_upll
                0x00000000       0x10 C:/Arduino/hardware/arduino/sam/variants/arduino_due_x/libsam_sam3x8e_gcc_rel.a(pmc.o)
 .text.pmc_enable_all_periph_clk
                0x00000000       0x30 C:/Arduino/hardware/arduino/sam/variants/arduino_due_x/libsam_sam3x8e_gcc_rel.a(pmc.o)
 .text.pmc_disable_all_periph_clk
                0x00000000       0x2c C:/Arduino/hardware/arduino/sam/variants/arduino_due_x/libsam_sam3x8e_gcc_rel.a(pmc.o)
 .text.pmc_is_periph_clk_enabled
                0x00000000       0x34 C:/Arduino/hardware/arduino/sam/variants/arduino_due_x/libsam_sam3x8e_gcc_rel.a(pmc.o)
 .text.pmc_pck_set_prescaler
                0x00000000       0x34 C:/Arduino/hardware/arduino/sam/variants/arduino_due_x/libsam_sam3x8e_gcc_rel.a(pmc.o)
 .text.pmc_pck_set_source
                0x00000000       0x34 C:/Arduino/hardware/arduino/sam/variants/arduino_due_x/libsam_sam3x8e_gcc_rel.a(pmc.o)
 .text.pmc_switch_pck_to_sclk
                0x00000000       0x30 C:/Arduino/hardware/arduino/sam/variants/arduino_due_x/libsam_sam3x8e_gcc_rel.a(pmc.o)
 .text.pmc_switch_pck_to_mainck
                0x00000000       0x34 C:/Arduino/hardware/arduino/sam/variants/arduino_due_x/libsam_sam3x8e_gcc_rel.a(pmc.o)
 .text.pmc_switch_pck_to_pllack
                0x00000000       0x34 C:/Arduino/hardware/arduino/sam/variants/arduino_due_x/libsam_sam3x8e_gcc_rel.a(pmc.o)
 .text.pmc_switch_pck_to_upllck
                0x00000000       0x34 C:/Arduino/hardware/arduino/sam/variants/arduino_due_x/libsam_sam3x8e_gcc_rel.a(pmc.o)
 .text.pmc_enable_pck
                0x00000000       0x10 C:/Arduino/hardware/arduino/sam/variants/arduino_due_x/libsam_sam3x8e_gcc_rel.a(pmc.o)
 .text.pmc_disable_pck
                0x00000000       0x10 C:/Arduino/hardware/arduino/sam/variants/arduino_due_x/libsam_sam3x8e_gcc_rel.a(pmc.o)
 .text.pmc_enable_all_pck
                0x00000000       0x10 C:/Arduino/hardware/arduino/sam/variants/arduino_due_x/libsam_sam3x8e_gcc_rel.a(pmc.o)
 .text.pmc_disable_all_pck
                0x00000000       0x10 C:/Arduino/hardware/arduino/sam/variants/arduino_due_x/libsam_sam3x8e_gcc_rel.a(pmc.o)
 .text.pmc_is_pck_enabled
                0x00000000       0x1c C:/Arduino/hardware/arduino/sam/variants/arduino_due_x/libsam_sam3x8e_gcc_rel.a(pmc.o)
 .text.pmc_switch_udpck_to_pllack
                0x00000000       0x10 C:/Arduino/hardware/arduino/sam/variants/arduino_due_x/libsam_sam3x8e_gcc_rel.a(pmc.o)
 .text.pmc_disable_udpck
                0x00000000        0xc C:/Arduino/hardware/arduino/sam/variants/arduino_due_x/libsam_sam3x8e_gcc_rel.a(pmc.o)
 .text.pmc_enable_interrupt
                0x00000000        0xc C:/Arduino/hardware/arduino/sam/variants/arduino_due_x/libsam_sam3x8e_gcc_rel.a(pmc.o)
 .text.pmc_disable_interrupt
                0x00000000        0xc C:/Arduino/hardware/arduino/sam/variants/arduino_due_x/libsam_sam3x8e_gcc_rel.a(pmc.o)
 .text.pmc_get_interrupt_mask
                0x00000000        0xc C:/Arduino/hardware/arduino/sam/variants/arduino_due_x/libsam_sam3x8e_gcc_rel.a(pmc.o)
 .text.pmc_get_status
                0x00000000        0xc C:/Arduino/hardware/arduino/sam/variants/arduino_due_x/libsam_sam3x8e_gcc_rel.a(pmc.o)
 .text.pmc_set_fast_startup_input
                0x00000000       0x14 C:/Arduino/hardware/arduino/sam/variants/arduino_due_x/libsam_sam3x8e_gcc_rel.a(pmc.o)
 .text.pmc_clr_fast_startup_input
                0x00000000       0x14 C:/Arduino/hardware/arduino/sam/variants/arduino_due_x/libsam_sam3x8e_gcc_rel.a(pmc.o)
 .text.pmc_enable_sleepmode
                0x00000000       0x28 C:/Arduino/hardware/arduino/sam/variants/arduino_due_x/libsam_sam3x8e_gcc_rel.a(pmc.o)
 .text.pmc_enable_waitmode
                0x00000000       0x38 C:/Arduino/hardware/arduino/sam/variants/arduino_due_x/libsam_sam3x8e_gcc_rel.a(pmc.o)
 .text.pmc_enable_backupmode
                0x00000000       0x14 C:/Arduino/hardware/arduino/sam/variants/arduino_due_x/libsam_sam3x8e_gcc_rel.a(pmc.o)
 .text.pmc_get_writeprotect_status
                0x00000000       0x10 C:/Arduino/hardware/arduino/sam/variants/arduino_due_x/libsam_sam3x8e_gcc_rel.a(pmc.o)
 .text          0x00000000        0x0 C:/Arduino/hardware/arduino/sam/variants/arduino_due_x/libsam_sam3x8e_gcc_rel.a(pwmc.o)
 .data          0x00000000        0x0 C:/Arduino/hardware/arduino/sam/variants/arduino_due_x/libsam_sam3x8e_gcc_rel.a(pwmc.o)
 .bss           0x00000000        0x0 C:/Arduino/hardware/arduino/sam/variants/arduino_due_x/libsam_sam3x8e_gcc_rel.a(pwmc.o)
 .text.FindClockConfiguration
                0x00000000       0x7c C:/Arduino/hardware/arduino/sam/variants/arduino_due_x/libsam_sam3x8e_gcc_rel.a(pwmc.o)
 .text.PWMC_ConfigureChannel
                0x00000000       0x60 C:/Arduino/hardware/arduino/sam/variants/arduino_due_x/libsam_sam3x8e_gcc_rel.a(pwmc.o)
 .text.PWMC_ConfigureChannelExt
                0x00000000       0xd4 C:/Arduino/hardware/arduino/sam/variants/arduino_due_x/libsam_sam3x8e_gcc_rel.a(pwmc.o)
 .text.PWMC_ConfigureClocks
                0x00000000       0x54 C:/Arduino/hardware/arduino/sam/variants/arduino_due_x/libsam_sam3x8e_gcc_rel.a(pwmc.o)
 .text.PWMC_SetPeriod
                0x00000000       0x1a C:/Arduino/hardware/arduino/sam/variants/arduino_due_x/libsam_sam3x8e_gcc_rel.a(pwmc.o)
 .text.PWMC_SetDutyCycle
                0x00000000       0x48 C:/Arduino/hardware/arduino/sam/variants/arduino_due_x/libsam_sam3x8e_gcc_rel.a(pwmc.o)
 .text.PWMC_SetDeadTime
                0x00000000       0x60 C:/Arduino/hardware/arduino/sam/variants/arduino_due_x/libsam_sam3x8e_gcc_rel.a(pwmc.o)
 .text.PWMC_ConfigureSyncChannel
                0x00000000        0xc C:/Arduino/hardware/arduino/sam/variants/arduino_due_x/libsam_sam3x8e_gcc_rel.a(pwmc.o)
 .text.PWMC_SetSyncChannelUpdatePeriod
                0x00000000        0xe C:/Arduino/hardware/arduino/sam/variants/arduino_due_x/libsam_sam3x8e_gcc_rel.a(pwmc.o)
 .text.PWMC_SetSyncChannelUpdateUnlock
                0x00000000        0x6 C:/Arduino/hardware/arduino/sam/variants/arduino_due_x/libsam_sam3x8e_gcc_rel.a(pwmc.o)
 .text.PWMC_EnableChannel
                0x00000000        0x8 C:/Arduino/hardware/arduino/sam/variants/arduino_due_x/libsam_sam3x8e_gcc_rel.a(pwmc.o)
 .text.PWMC_DisableChannel
                0x00000000        0x8 C:/Arduino/hardware/arduino/sam/variants/arduino_due_x/libsam_sam3x8e_gcc_rel.a(pwmc.o)
 .text.PWMC_EnableChannelIt
                0x00000000        0x8 C:/Arduino/hardware/arduino/sam/variants/arduino_due_x/libsam_sam3x8e_gcc_rel.a(pwmc.o)
 .text.PWMC_DisableChannelIt
                0x00000000        0x8 C:/Arduino/hardware/arduino/sam/variants/arduino_due_x/libsam_sam3x8e_gcc_rel.a(pwmc.o)
 .text.PWMC_EnableIt
                0x00000000        0x6 C:/Arduino/hardware/arduino/sam/variants/arduino_due_x/libsam_sam3x8e_gcc_rel.a(pwmc.o)
 .text.PWMC_DisableIt
                0x00000000        0x6 C:/Arduino/hardware/arduino/sam/variants/arduino_due_x/libsam_sam3x8e_gcc_rel.a(pwmc.o)
 .text.PWMC_WriteBuffer
                0x00000000       0x2e C:/Arduino/hardware/arduino/sam/variants/arduino_due_x/libsam_sam3x8e_gcc_rel.a(pwmc.o)
 .text.PWMC_SetOverrideValue
                0x00000000        0x4 C:/Arduino/hardware/arduino/sam/variants/arduino_due_x/libsam_sam3x8e_gcc_rel.a(pwmc.o)
 .text.PWMC_EnableOverrideOutput
                0x00000000        0xa C:/Arduino/hardware/arduino/sam/variants/arduino_due_x/libsam_sam3x8e_gcc_rel.a(pwmc.o)
 .text.PWMC_DisableOverrideOutput
                0x00000000        0xa C:/Arduino/hardware/arduino/sam/variants/arduino_due_x/libsam_sam3x8e_gcc_rel.a(pwmc.o)
 .text.PWMC_SetFaultMode
                0x00000000        0x4 C:/Arduino/hardware/arduino/sam/variants/arduino_due_x/libsam_sam3x8e_gcc_rel.a(pwmc.o)
 .text.PWMC_FaultClear
                0x00000000        0x4 C:/Arduino/hardware/arduino/sam/variants/arduino_due_x/libsam_sam3x8e_gcc_rel.a(pwmc.o)
 .text.PWMC_SetFaultProtectionValue
                0x00000000        0x4 C:/Arduino/hardware/arduino/sam/variants/arduino_due_x/libsam_sam3x8e_gcc_rel.a(pwmc.o)
 .text.PWMC_EnableFaultProtection
                0x00000000       0x36 C:/Arduino/hardware/arduino/sam/variants/arduino_due_x/libsam_sam3x8e_gcc_rel.a(pwmc.o)
 .text.PWMC_ConfigureComparisonUnit
                0x00000000       0x50 C:/Arduino/hardware/arduino/sam/variants/arduino_due_x/libsam_sam3x8e_gcc_rel.a(pwmc.o)
 .text.PWMC_ConfigureEventLineMode
                0x00000000       0x30 C:/Arduino/hardware/arduino/sam/variants/arduino_due_x/libsam_sam3x8e_gcc_rel.a(pwmc.o)
 .rodata.__func__.6770
                0x00000000       0x1d C:/Arduino/hardware/arduino/sam/variants/arduino_due_x/libsam_sam3x8e_gcc_rel.a(pwmc.o)
 .rodata.__func__.6657
                0x00000000       0x19 C:/Arduino/hardware/arduino/sam/variants/arduino_due_x/libsam_sam3x8e_gcc_rel.a(pwmc.o)
 .rodata.__func__.6776
                0x00000000       0x1c C:/Arduino/hardware/arduino/sam/variants/arduino_due_x/libsam_sam3x8e_gcc_rel.a(pwmc.o)
 .rodata.__func__.6668
                0x00000000       0x15 C:/Arduino/hardware/arduino/sam/variants/arduino_due_x/libsam_sam3x8e_gcc_rel.a(pwmc.o)
 .rodata.str1.1
                0x00000000      0x1cc C:/Arduino/hardware/arduino/sam/variants/arduino_due_x/libsam_sam3x8e_gcc_rel.a(pwmc.o)
 .rodata.__func__.6679
                0x00000000       0x12 C:/Arduino/hardware/arduino/sam/variants/arduino_due_x/libsam_sam3x8e_gcc_rel.a(pwmc.o)
 .rodata.__func__.6686
                0x00000000       0x11 C:/Arduino/hardware/arduino/sam/variants/arduino_due_x/libsam_sam3x8e_gcc_rel.a(pwmc.o)
 .rodata.__func__.6631
                0x00000000       0x17 C:/Arduino/hardware/arduino/sam/variants/arduino_due_x/libsam_sam3x8e_gcc_rel.a(pwmc.o)
 .rodata.C.9.8049
                0x00000000       0x2c C:/Arduino/hardware/arduino/sam/variants/arduino_due_x/libsam_sam3x8e_gcc_rel.a(pwmc.o)
 .rodata.__func__.6642
                0x00000000       0x16 C:/Arduino/hardware/arduino/sam/variants/arduino_due_x/libsam_sam3x8e_gcc_rel.a(pwmc.o)
 .text          0x00000000        0x0 C:/Arduino/hardware/arduino/sam/variants/arduino_due_x/libsam_sam3x8e_gcc_rel.a(tc.o)
 .data          0x00000000        0x0 C:/Arduino/hardware/arduino/sam/variants/arduino_due_x/libsam_sam3x8e_gcc_rel.a(tc.o)
 .bss           0x00000000        0x0 C:/Arduino/hardware/arduino/sam/variants/arduino_due_x/libsam_sam3x8e_gcc_rel.a(tc.o)
 .text.TC_FindMckDivisor
                0x00000000       0x6e C:/Arduino/hardware/arduino/sam/variants/arduino_due_x/libsam_sam3x8e_gcc_rel.a(tc.o)
 .text.TC_ReadCV
                0x00000000        0x8 C:/Arduino/hardware/arduino/sam/variants/arduino_due_x/libsam_sam3x8e_gcc_rel.a(tc.o)
 .text.TC_SetRA
                0x00000000        0x8 C:/Arduino/hardware/arduino/sam/variants/arduino_due_x/libsam_sam3x8e_gcc_rel.a(tc.o)
 .text.TC_SetRB
                0x00000000        0x8 C:/Arduino/hardware/arduino/sam/variants/arduino_due_x/libsam_sam3x8e_gcc_rel.a(tc.o)
 .text          0x00000000        0x0 C:/Arduino/hardware/arduino/sam/variants/arduino_due_x/libsam_sam3x8e_gcc_rel.a(timetick.o)
 .data          0x00000000        0x0 C:/Arduino/hardware/arduino/sam/variants/arduino_due_x/libsam_sam3x8e_gcc_rel.a(timetick.o)
 .bss           0x00000000        0x0 C:/Arduino/hardware/arduino/sam/variants/arduino_due_x/libsam_sam3x8e_gcc_rel.a(timetick.o)
 .text.TimeTick_Configure
                0x00000000       0x38 C:/Arduino/hardware/arduino/sam/variants/arduino_due_x/libsam_sam3x8e_gcc_rel.a(timetick.o)
 .text.Wait     0x00000000       0x1c C:/Arduino/hardware/arduino/sam/variants/arduino_due_x/libsam_sam3x8e_gcc_rel.a(timetick.o)
 .text.Sleep    0x00000000       0x20 C:/Arduino/hardware/arduino/sam/variants/arduino_due_x/libsam_sam3x8e_gcc_rel.a(timetick.o)
 .text          0x00000000        0x0 C:/Arduino/hardware/arduino/sam/variants/arduino_due_x/libsam_sam3x8e_gcc_rel.a(twi.o)
 .data          0x00000000        0x0 C:/Arduino/hardware/arduino/sam/variants/arduino_due_x/libsam_sam3x8e_gcc_rel.a(twi.o)
 .bss           0x00000000        0x0 C:/Arduino/hardware/arduino/sam/variants/arduino_due_x/libsam_sam3x8e_gcc_rel.a(twi.o)
 .text.TWI_ConfigureSlave
                0x00000000       0x44 C:/Arduino/hardware/arduino/sam/variants/arduino_due_x/libsam_sam3x8e_gcc_rel.a(twi.o)
 .text.TWI_GetMaskedStatus
                0x00000000       0x2c C:/Arduino/hardware/arduino/sam/variants/arduino_due_x/libsam_sam3x8e_gcc_rel.a(twi.o)
 .rodata.__func__.7074
                0x00000000       0x14 C:/Arduino/hardware/arduino/sam/variants/arduino_due_x/libsam_sam3x8e_gcc_rel.a(twi.o)
 .rodata.__func__.7018
                0x00000000       0x13 C:/Arduino/hardware/arduino/sam/variants/arduino_due_x/libsam_sam3x8e_gcc_rel.a(twi.o)
 .text          0x00000000        0x0 C:/Arduino/hardware/arduino/sam/variants/arduino_due_x/libsam_sam3x8e_gcc_rel.a(wdt.o)
 .data          0x00000000        0x0 C:/Arduino/hardware/arduino/sam/variants/arduino_due_x/libsam_sam3x8e_gcc_rel.a(wdt.o)
 .bss           0x00000000        0x0 C:/Arduino/hardware/arduino/sam/variants/arduino_due_x/libsam_sam3x8e_gcc_rel.a(wdt.o)
 .text.WDT_Enable
                0x00000000        0x4 C:/Arduino/hardware/arduino/sam/variants/arduino_due_x/libsam_sam3x8e_gcc_rel.a(wdt.o)
 .text.WDT_Restart
                0x00000000        0xc C:/Arduino/hardware/arduino/sam/variants/arduino_due_x/libsam_sam3x8e_gcc_rel.a(wdt.o)
 .text.WDT_GetStatus
                0x00000000        0x8 C:/Arduino/hardware/arduino/sam/variants/arduino_due_x/libsam_sam3x8e_gcc_rel.a(wdt.o)
 .text.WDT_GetPeriod
                0x00000000       0x1a C:/Arduino/hardware/arduino/sam/variants/arduino_due_x/libsam_sam3x8e_gcc_rel.a(wdt.o)
 .text          0x00000000        0x0 C:/Arduino/hardware/arduino/sam/variants/arduino_due_x/libsam_sam3x8e_gcc_rel.a(system_sam3xa.o)
 .data          0x00000000        0x0 C:/Arduino/hardware/arduino/sam/variants/arduino_due_x/libsam_sam3x8e_gcc_rel.a(system_sam3xa.o)
 .bss           0x00000000        0x0 C:/Arduino/hardware/arduino/sam/variants/arduino_due_x/libsam_sam3x8e_gcc_rel.a(system_sam3xa.o)
 .text.SystemCoreClockUpdate
                0x00000000       0xe4 C:/Arduino/hardware/arduino/sam/variants/arduino_due_x/libsam_sam3x8e_gcc_rel.a(system_sam3xa.o)
 .text.system_init_flash
                0x00000000       0x58 C:/Arduino/hardware/arduino/sam/variants/arduino_due_x/libsam_sam3x8e_gcc_rel.a(system_sam3xa.o)
 .text          0x00000000        0x0 C:/Arduino/hardware/arduino/sam/variants/arduino_due_x/libsam_sam3x8e_gcc_rel.a(startup_sam3xa.o)
 .data          0x00000000        0x0 C:/Arduino/hardware/arduino/sam/variants/arduino_due_x/libsam_sam3x8e_gcc_rel.a(startup_sam3xa.o)
 .bss           0x00000000        0x0 C:/Arduino/hardware/arduino/sam/variants/arduino_due_x/libsam_sam3x8e_gcc_rel.a(startup_sam3xa.o)
 .text          0x00000000        0x0 C:/Arduino/hardware/arduino/sam/variants/arduino_due_x/libsam_sam3x8e_gcc_rel.a(adc.o)
 .data          0x00000000        0x0 C:/Arduino/hardware/arduino/sam/variants/arduino_due_x/libsam_sam3x8e_gcc_rel.a(adc.o)
 .bss           0x00000000        0x0 C:/Arduino/hardware/arduino/sam/variants/arduino_due_x/libsam_sam3x8e_gcc_rel.a(adc.o)
 .text.adc_set_resolution
                0x00000000       0x10 C:/Arduino/hardware/arduino/sam/variants/arduino_due_x/libsam_sam3x8e_gcc_rel.a(adc.o)
 .text.adc_configure_power_save
                0x00000000       0x18 C:/Arduino/hardware/arduino/sam/variants/arduino_due_x/libsam_sam3x8e_gcc_rel.a(adc.o)
 .text.adc_configure_sequence
                0x00000000       0x58 C:/Arduino/hardware/arduino/sam/variants/arduino_due_x/libsam_sam3x8e_gcc_rel.a(adc.o)
 .text.adc_enable_anch
                0x00000000        0xa C:/Arduino/hardware/arduino/sam/variants/arduino_due_x/libsam_sam3x8e_gcc_rel.a(adc.o)
 .text.adc_disable_anch
                0x00000000        0xa C:/Arduino/hardware/arduino/sam/variants/arduino_due_x/libsam_sam3x8e_gcc_rel.a(adc.o)
 .text.adc_start
                0x00000000        0x6 C:/Arduino/hardware/arduino/sam/variants/arduino_due_x/libsam_sam3x8e_gcc_rel.a(adc.o)
 .text.adc_stop
                0x00000000        0x6 C:/Arduino/hardware/arduino/sam/variants/arduino_due_x/libsam_sam3x8e_gcc_rel.a(adc.o)
 .text.adc_enable_channel
                0x00000000        0x8 C:/Arduino/hardware/arduino/sam/variants/arduino_due_x/libsam_sam3x8e_gcc_rel.a(adc.o)
 .text.adc_enable_all_channel
                0x00000000        0x8 C:/Arduino/hardware/arduino/sam/variants/arduino_due_x/libsam_sam3x8e_gcc_rel.a(adc.o)
 .text.adc_disable_channel
                0x00000000        0x8 C:/Arduino/hardware/arduino/sam/variants/arduino_due_x/libsam_sam3x8e_gcc_rel.a(adc.o)
 .text.adc_get_channel_status
                0x00000000        0xa C:/Arduino/hardware/arduino/sam/variants/arduino_due_x/libsam_sam3x8e_gcc_rel.a(adc.o)
 .text.adc_get_channel_value
                0x00000000       0x10 C:/Arduino/hardware/arduino/sam/variants/arduino_due_x/libsam_sam3x8e_gcc_rel.a(adc.o)
 .text.adc_get_latest_value
                0x00000000        0x4 C:/Arduino/hardware/arduino/sam/variants/arduino_due_x/libsam_sam3x8e_gcc_rel.a(adc.o)
 .text.adc_enable_tag
                0x00000000        0xa C:/Arduino/hardware/arduino/sam/variants/arduino_due_x/libsam_sam3x8e_gcc_rel.a(adc.o)
 .text.adc_disable_tag
                0x00000000        0xa C:/Arduino/hardware/arduino/sam/variants/arduino_due_x/libsam_sam3x8e_gcc_rel.a(adc.o)
 .text.adc_get_tag
                0x00000000        0xa C:/Arduino/hardware/arduino/sam/variants/arduino_due_x/libsam_sam3x8e_gcc_rel.a(adc.o)
 .text.adc_start_sequencer
                0x00000000        0xa C:/Arduino/hardware/arduino/sam/variants/arduino_due_x/libsam_sam3x8e_gcc_rel.a(adc.o)
 .text.adc_stop_sequencer
                0x00000000        0xa C:/Arduino/hardware/arduino/sam/variants/arduino_due_x/libsam_sam3x8e_gcc_rel.a(adc.o)
 .text.adc_set_comparison_mode
                0x00000000       0x16 C:/Arduino/hardware/arduino/sam/variants/arduino_due_x/libsam_sam3x8e_gcc_rel.a(adc.o)
 .text.adc_get_comparison_mode
                0x00000000        0x8 C:/Arduino/hardware/arduino/sam/variants/arduino_due_x/libsam_sam3x8e_gcc_rel.a(adc.o)
 .text.adc_set_comparison_window
                0x00000000       0x14 C:/Arduino/hardware/arduino/sam/variants/arduino_due_x/libsam_sam3x8e_gcc_rel.a(adc.o)
 .text.adc_set_comparison_channel
                0x00000000       0x28 C:/Arduino/hardware/arduino/sam/variants/arduino_due_x/libsam_sam3x8e_gcc_rel.a(adc.o)
 .text.adc_enable_channel_differential_input
                0x00000000       0x12 C:/Arduino/hardware/arduino/sam/variants/arduino_due_x/libsam_sam3x8e_gcc_rel.a(adc.o)
 .text.adc_disable_channel_differential_input
                0x00000000       0x1c C:/Arduino/hardware/arduino/sam/variants/arduino_due_x/libsam_sam3x8e_gcc_rel.a(adc.o)
 .text.adc_enable_channel_input_offset
                0x00000000        0xe C:/Arduino/hardware/arduino/sam/variants/arduino_due_x/libsam_sam3x8e_gcc_rel.a(adc.o)
 .text.adc_disable_channel_input_offset
                0x00000000       0x1c C:/Arduino/hardware/arduino/sam/variants/arduino_due_x/libsam_sam3x8e_gcc_rel.a(adc.o)
 .text.adc_set_channel_input_gain
                0x00000000       0x14 C:/Arduino/hardware/arduino/sam/variants/arduino_due_x/libsam_sam3x8e_gcc_rel.a(adc.o)
 .text.adc_get_actual_adc_clock
                0x00000000       0x10 C:/Arduino/hardware/arduino/sam/variants/arduino_due_x/libsam_sam3x8e_gcc_rel.a(adc.o)
 .text.adc_enable_interrupt
                0x00000000        0x4 C:/Arduino/hardware/arduino/sam/variants/arduino_due_x/libsam_sam3x8e_gcc_rel.a(adc.o)
 .text.adc_get_status
                0x00000000        0x4 C:/Arduino/hardware/arduino/sam/variants/arduino_due_x/libsam_sam3x8e_gcc_rel.a(adc.o)
 .text.adc_get_overrun_status
                0x00000000        0x4 C:/Arduino/hardware/arduino/sam/variants/arduino_due_x/libsam_sam3x8e_gcc_rel.a(adc.o)
 .text.adc_get_interrupt_mask
                0x00000000        0x4 C:/Arduino/hardware/arduino/sam/variants/arduino_due_x/libsam_sam3x8e_gcc_rel.a(adc.o)
 .text.adc_set_bias_current
                0x00000000       0x14 C:/Arduino/hardware/arduino/sam/variants/arduino_due_x/libsam_sam3x8e_gcc_rel.a(adc.o)
 .text.adc_enable_ts
                0x00000000        0xe C:/Arduino/hardware/arduino/sam/variants/arduino_due_x/libsam_sam3x8e_gcc_rel.a(adc.o)
 .text.adc_disable_ts
                0x00000000        0xe C:/Arduino/hardware/arduino/sam/variants/arduino_due_x/libsam_sam3x8e_gcc_rel.a(adc.o)
 .text.adc_set_writeprotect
                0x00000000        0xe C:/Arduino/hardware/arduino/sam/variants/arduino_due_x/libsam_sam3x8e_gcc_rel.a(adc.o)
 .text.adc_get_writeprotect_status
                0x00000000        0xa C:/Arduino/hardware/arduino/sam/variants/arduino_due_x/libsam_sam3x8e_gcc_rel.a(adc.o)
 .text.adc_get_pdc_base
                0x00000000        0x8 C:/Arduino/hardware/arduino/sam/variants/arduino_due_x/libsam_sam3x8e_gcc_rel.a(adc.o)
 .text          0x00000000        0x0 C:/Arduino/hardware/arduino/sam/variants/arduino_due_x/libsam_sam3x8e_gcc_rel.a(uotghs.o)
 .data          0x00000000        0x0 C:/Arduino/hardware/arduino/sam/variants/arduino_due_x/libsam_sam3x8e_gcc_rel.a(uotghs.o)
 .bss           0x00000000        0x0 C:/Arduino/hardware/arduino/sam/variants/arduino_due_x/libsam_sam3x8e_gcc_rel.a(uotghs.o)
 .text          0x00000000        0x0 C:/Arduino/hardware/arduino/sam/variants/arduino_due_x/libsam_sam3x8e_gcc_rel.a(dacc.o)
 .data          0x00000000        0x0 C:/Arduino/hardware/arduino/sam/variants/arduino_due_x/libsam_sam3x8e_gcc_rel.a(dacc.o)
 .bss           0x00000000        0x0 C:/Arduino/hardware/arduino/sam/variants/arduino_due_x/libsam_sam3x8e_gcc_rel.a(dacc.o)
 .text.dacc_reset
                0x00000000        0x6 C:/Arduino/hardware/arduino/sam/variants/arduino_due_x/libsam_sam3x8e_gcc_rel.a(dacc.o)
 .text.dacc_set_trigger
                0x00000000       0x18 C:/Arduino/hardware/arduino/sam/variants/arduino_due_x/libsam_sam3x8e_gcc_rel.a(dacc.o)
 .text.dacc_disable_trigger
                0x00000000        0xa C:/Arduino/hardware/arduino/sam/variants/arduino_due_x/libsam_sam3x8e_gcc_rel.a(dacc.o)
 .text.dacc_set_transfer_mode
                0x00000000       0x16 C:/Arduino/hardware/arduino/sam/variants/arduino_due_x/libsam_sam3x8e_gcc_rel.a(dacc.o)
 .text.dacc_enable_interrupt
                0x00000000        0x4 C:/Arduino/hardware/arduino/sam/variants/arduino_due_x/libsam_sam3x8e_gcc_rel.a(dacc.o)
 .text.dacc_disable_interrupt
                0x00000000        0x4 C:/Arduino/hardware/arduino/sam/variants/arduino_due_x/libsam_sam3x8e_gcc_rel.a(dacc.o)
 .text.dacc_get_interrupt_mask
                0x00000000        0x4 C:/Arduino/hardware/arduino/sam/variants/arduino_due_x/libsam_sam3x8e_gcc_rel.a(dacc.o)
 .text.dacc_get_interrupt_status
                0x00000000        0x4 C:/Arduino/hardware/arduino/sam/variants/arduino_due_x/libsam_sam3x8e_gcc_rel.a(dacc.o)
 .text.dacc_write_conversion_data
                0x00000000        0x4 C:/Arduino/hardware/arduino/sam/variants/arduino_due_x/libsam_sam3x8e_gcc_rel.a(dacc.o)
 .text.dacc_set_writeprotect
                0x00000000       0x18 C:/Arduino/hardware/arduino/sam/variants/arduino_due_x/libsam_sam3x8e_gcc_rel.a(dacc.o)
 .text.dacc_get_writeprotect_status
                0x00000000        0x6 C:/Arduino/hardware/arduino/sam/variants/arduino_due_x/libsam_sam3x8e_gcc_rel.a(dacc.o)
 .text.dacc_get_pdc_base
                0x00000000        0x8 C:/Arduino/hardware/arduino/sam/variants/arduino_due_x/libsam_sam3x8e_gcc_rel.a(dacc.o)
 .text.dacc_set_channel_selection
                0x00000000       0x18 C:/Arduino/hardware/arduino/sam/variants/arduino_due_x/libsam_sam3x8e_gcc_rel.a(dacc.o)
 .text.dacc_enable_flexible_selection
                0x00000000        0xa C:/Arduino/hardware/arduino/sam/variants/arduino_due_x/libsam_sam3x8e_gcc_rel.a(dacc.o)
 .text.dacc_set_power_save
                0x00000000       0x28 C:/Arduino/hardware/arduino/sam/variants/arduino_due_x/libsam_sam3x8e_gcc_rel.a(dacc.o)
 .text.dacc_set_timing
                0x00000000       0x30 C:/Arduino/hardware/arduino/sam/variants/arduino_due_x/libsam_sam3x8e_gcc_rel.a(dacc.o)
 .text.dacc_enable_channel
                0x00000000       0x14 C:/Arduino/hardware/arduino/sam/variants/arduino_due_x/libsam_sam3x8e_gcc_rel.a(dacc.o)
 .text.dacc_disable_channel
                0x00000000       0x14 C:/Arduino/hardware/arduino/sam/variants/arduino_due_x/libsam_sam3x8e_gcc_rel.a(dacc.o)
 .text.dacc_get_channel_status
                0x00000000        0x4 C:/Arduino/hardware/arduino/sam/variants/arduino_due_x/libsam_sam3x8e_gcc_rel.a(dacc.o)
 .text.dacc_set_analog_control
                0x00000000        0x8 C:/Arduino/hardware/arduino/sam/variants/arduino_due_x/libsam_sam3x8e_gcc_rel.a(dacc.o)
 .text.dacc_get_analog_control
                0x00000000        0x6 C:/Arduino/hardware/arduino/sam/variants/arduino_due_x/libsam_sam3x8e_gcc_rel.a(dacc.o)
 .text          0x00000000        0x0 C:/Users/jon_000/Git/ALFRED_CORE/Release/arduino.ar(WInterrupts.c.o)
 .data          0x00000000        0x0 C:/Users/jon_000/Git/ALFRED_CORE/Release/arduino.ar(WInterrupts.c.o)
 .bss           0x00000000        0x0 C:/Users/jon_000/Git/ALFRED_CORE/Release/arduino.ar(WInterrupts.c.o)
 .text.detachInterrupt
                0x00000000       0x14 C:/Users/jon_000/Git/ALFRED_CORE/Release/arduino.ar(WInterrupts.c.o)
 .text.attachInterrupt
                0x00000000      0x154 C:/Users/jon_000/Git/ALFRED_CORE/Release/arduino.ar(WInterrupts.c.o)
 .bss.enabled.6795
                0x00000000        0x4 C:/Users/jon_000/Git/ALFRED_CORE/Release/arduino.ar(WInterrupts.c.o)
 .text          0x00000000        0x0 C:/Users/jon_000/Git/ALFRED_CORE/Release/arduino.ar(cortex_handlers.c.o)
 .data          0x00000000        0x0 C:/Users/jon_000/Git/ALFRED_CORE/Release/arduino.ar(cortex_handlers.c.o)
 .bss           0x00000000        0x0 C:/Users/jon_000/Git/ALFRED_CORE/Release/arduino.ar(cortex_handlers.c.o)
 .text          0x00000000        0x0 C:/Users/jon_000/Git/ALFRED_CORE/Release/arduino.ar(main.cpp.o)
 .data          0x00000000        0x0 C:/Users/jon_000/Git/ALFRED_CORE/Release/arduino.ar(main.cpp.o)
 .bss           0x00000000        0x0 C:/Users/jon_000/Git/ALFRED_CORE/Release/arduino.ar(main.cpp.o)
 .text          0x00000000        0x0 C:/Users/jon_000/Git/ALFRED_CORE/Release/arduino.ar(USBCore.cpp.o)
 .data          0x00000000        0x0 C:/Users/jon_000/Git/ALFRED_CORE/Release/arduino.ar(USBCore.cpp.o)
 .bss           0x00000000        0x0 C:/Users/jon_000/Git/ALFRED_CORE/Release/arduino.ar(USBCore.cpp.o)
 .text._ZN10USBDevice_10configuredEv
                0x00000000       0x10 C:/Users/jon_000/Git/ALFRED_CORE/Release/arduino.ar(USBCore.cpp.o)
 .text._ZN10USBDevice_4pollEv
                0x00000000        0x2 C:/Users/jon_000/Git/ALFRED_CORE/Release/arduino.ar(USBCore.cpp.o)
 .text._ZN10USBDevice_6detachEv
                0x00000000       0x14 C:/Users/jon_000/Git/ALFRED_CORE/Release/arduino.ar(USBCore.cpp.o)
 .text._ZN10USBDevice_C2Ev
                0x00000000       0x24 C:/Users/jon_000/Git/ALFRED_CORE/Release/arduino.ar(USBCore.cpp.o)
 .text._Z14USBD_Connectedv
                0x00000000       0x1c C:/Users/jon_000/Git/ALFRED_CORE/Release/arduino.ar(USBCore.cpp.o)
 .bss.RxLEDPulse
                0x00000000        0x1 C:/Users/jon_000/Git/ALFRED_CORE/Release/arduino.ar(USBCore.cpp.o)
 .bss.TxLEDPulse
                0x00000000        0x1 C:/Users/jon_000/Git/ALFRED_CORE/Release/arduino.ar(USBCore.cpp.o)
 .text          0x00000000        0x0 C:/Users/jon_000/Git/ALFRED_CORE/Release/arduino.ar(Reset.cpp.o)
 .data          0x00000000        0x0 C:/Users/jon_000/Git/ALFRED_CORE/Release/arduino.ar(Reset.cpp.o)
 .bss           0x00000000        0x0 C:/Users/jon_000/Git/ALFRED_CORE/Release/arduino.ar(Reset.cpp.o)
 .group         0x00000000        0x8 C:/Users/jon_000/Git/ALFRED_CORE/Release/arduino.ar(CDC.cpp.o)
 .text          0x00000000        0x0 C:/Users/jon_000/Git/ALFRED_CORE/Release/arduino.ar(CDC.cpp.o)
 .data          0x00000000        0x0 C:/Users/jon_000/Git/ALFRED_CORE/Release/arduino.ar(CDC.cpp.o)
 .bss           0x00000000        0x0 C:/Users/jon_000/Git/ALFRED_CORE/Release/arduino.ar(CDC.cpp.o)
 .text._ZN7Serial_5beginEm
                0x00000000        0x2 C:/Users/jon_000/Git/ALFRED_CORE/Release/arduino.ar(CDC.cpp.o)
 .text._ZN7Serial_5beginEmh
                0x00000000        0x2 C:/Users/jon_000/Git/ALFRED_CORE/Release/arduino.ar(CDC.cpp.o)
 .text._ZN7Serial_3endEv
                0x00000000        0x2 C:/Users/jon_000/Git/ALFRED_CORE/Release/arduino.ar(CDC.cpp.o)
 .text._ZN7Serial_cvbEv
                0x00000000       0x28 C:/Users/jon_000/Git/ALFRED_CORE/Release/arduino.ar(CDC.cpp.o)
 .rodata._ZTV6Stream
                0x00000000       0x20 C:/Users/jon_000/Git/ALFRED_CORE/Release/arduino.ar(CDC.cpp.o)
 .data._serialPeek
                0x00000000        0x4 C:/Users/jon_000/Git/ALFRED_CORE/Release/arduino.ar(CDC.cpp.o)
 .text          0x00000000        0x0 C:/Users/jon_000/Git/ALFRED_CORE/Release/arduino.ar(HID.cpp.o)
 .data          0x00000000        0x0 C:/Users/jon_000/Git/ALFRED_CORE/Release/arduino.ar(HID.cpp.o)
 .bss           0x00000000        0x0 C:/Users/jon_000/Git/ALFRED_CORE/Release/arduino.ar(HID.cpp.o)
 .text._ZN6Mouse_C2Ev
                0x00000000        0x6 C:/Users/jon_000/Git/ALFRED_CORE/Release/arduino.ar(HID.cpp.o)
 .text._ZN6Mouse_5beginEv
                0x00000000        0x2 C:/Users/jon_000/Git/ALFRED_CORE/Release/arduino.ar(HID.cpp.o)
 .text._ZN6Mouse_3endEv
                0x00000000        0x2 C:/Users/jon_000/Git/ALFRED_CORE/Release/arduino.ar(HID.cpp.o)
 .text._ZN6Mouse_9isPressedEh
                0x00000000        0xc C:/Users/jon_000/Git/ALFRED_CORE/Release/arduino.ar(HID.cpp.o)
 .text._ZN9Keyboard_C2Ev
                0x00000000       0x10 C:/Users/jon_000/Git/ALFRED_CORE/Release/arduino.ar(HID.cpp.o)
 .text._ZN9Keyboard_5beginEv
                0x00000000        0x2 C:/Users/jon_000/Git/ALFRED_CORE/Release/arduino.ar(HID.cpp.o)
 .text._ZN9Keyboard_3endEv
                0x00000000        0x2 C:/Users/jon_000/Git/ALFRED_CORE/Release/arduino.ar(HID.cpp.o)
 .text._ZN6Mouse_4moveEaaa
                0x00000000       0x20 C:/Users/jon_000/Git/ALFRED_CORE/Release/arduino.ar(HID.cpp.o)
 .text._ZN6Mouse_7buttonsEh
                0x00000000       0x14 C:/Users/jon_000/Git/ALFRED_CORE/Release/arduino.ar(HID.cpp.o)
 .text._ZN6Mouse_7releaseEh
                0x00000000        0xa C:/Users/jon_000/Git/ALFRED_CORE/Release/arduino.ar(HID.cpp.o)
 .text._ZN6Mouse_5pressEh
                0x00000000        0x8 C:/Users/jon_000/Git/ALFRED_CORE/Release/arduino.ar(HID.cpp.o)
 .text._ZN6Mouse_5clickEh
                0x00000000       0x22 C:/Users/jon_000/Git/ALFRED_CORE/Release/arduino.ar(HID.cpp.o)
 .text          0x00000000        0x0 C:/Arduino/hardware/arduino/sam/variants/arduino_due_x/libsam_sam3x8e_gcc_rel.a(interrupt_sam_nvic.o)
 .data          0x00000000        0x0 C:/Arduino/hardware/arduino/sam/variants/arduino_due_x/libsam_sam3x8e_gcc_rel.a(interrupt_sam_nvic.o)
 .bss           0x00000000        0x0 C:/Arduino/hardware/arduino/sam/variants/arduino_due_x/libsam_sam3x8e_gcc_rel.a(interrupt_sam_nvic.o)
 .text          0x00000000        0x0 C:/Arduino/hardware/arduino/sam/variants/arduino_due_x/libsam_sam3x8e_gcc_rel.a(uotghs_device.o)
 .data          0x00000000        0x0 C:/Arduino/hardware/arduino/sam/variants/arduino_due_x/libsam_sam3x8e_gcc_rel.a(uotghs_device.o)
 .bss           0x00000000        0x0 C:/Arduino/hardware/arduino/sam/variants/arduino_due_x/libsam_sam3x8e_gcc_rel.a(uotghs_device.o)
 .text.UDD_Detach
                0x00000000       0x10 C:/Arduino/hardware/arduino/sam/variants/arduino_due_x/libsam_sam3x8e_gcc_rel.a(uotghs_device.o)
 .text.UDD_WaitForINOrOUT
                0x00000000       0x24 C:/Arduino/hardware/arduino/sam/variants/arduino_due_x/libsam_sam3x8e_gcc_rel.a(uotghs_device.o)
 .text.UDD_ReadWriteAllowed
                0x00000000       0x14 C:/Arduino/hardware/arduino/sam/variants/arduino_due_x/libsam_sam3x8e_gcc_rel.a(uotghs_device.o)
 .text.UDD_GetFrameNumber
                0x00000000       0x14 C:/Arduino/hardware/arduino/sam/variants/arduino_due_x/libsam_sam3x8e_gcc_rel.a(uotghs_device.o)
 .data          0x00000000        0x0 c:/arduino/hardware/tools/g++_arm_none_eabi/bin/../lib/gcc/arm-none-eabi/4.4.1/../../../../arm-none-eabi/lib/thumb2\libm.a(lib_a-s_floor.o)
 .bss           0x00000000        0x0 c:/arduino/hardware/tools/g++_arm_none_eabi/bin/../lib/gcc/arm-none-eabi/4.4.1/../../../../arm-none-eabi/lib/thumb2\libm.a(lib_a-s_floor.o)
 .data          0x00000000        0x0 c:/arduino/hardware/tools/g++_arm_none_eabi/bin/../lib/gcc/arm-none-eabi/4.4.1/../../../../arm-none-eabi/lib/thumb2\libm.a(lib_a-s_isinfd.o)
 .bss           0x00000000        0x0 c:/arduino/hardware/tools/g++_arm_none_eabi/bin/../lib/gcc/arm-none-eabi/4.4.1/../../../../arm-none-eabi/lib/thumb2\libm.a(lib_a-s_isinfd.o)
 .data          0x00000000        0x0 c:/arduino/hardware/tools/g++_arm_none_eabi/bin/../lib/gcc/arm-none-eabi/4.4.1/../../../../arm-none-eabi/lib/thumb2\libm.a(lib_a-s_isnand.o)
 .bss           0x00000000        0x0 c:/arduino/hardware/tools/g++_arm_none_eabi/bin/../lib/gcc/arm-none-eabi/4.4.1/../../../../arm-none-eabi/lib/thumb2\libm.a(lib_a-s_isnand.o)
 .data          0x00000000        0x0 c:/arduino/hardware/tools/g++_arm_none_eabi/bin/../lib/gcc/arm-none-eabi/4.4.1/thumb2\libgcc.a(_arm_addsubdf3.o)
 .bss           0x00000000        0x0 c:/arduino/hardware/tools/g++_arm_none_eabi/bin/../lib/gcc/arm-none-eabi/4.4.1/thumb2\libgcc.a(_arm_addsubdf3.o)
 .data          0x00000000        0x0 c:/arduino/hardware/tools/g++_arm_none_eabi/bin/../lib/gcc/arm-none-eabi/4.4.1/thumb2\libgcc.a(_arm_muldivdf3.o)
 .bss           0x00000000        0x0 c:/arduino/hardware/tools/g++_arm_none_eabi/bin/../lib/gcc/arm-none-eabi/4.4.1/thumb2\libgcc.a(_arm_muldivdf3.o)
 .data          0x00000000        0x0 c:/arduino/hardware/tools/g++_arm_none_eabi/bin/../lib/gcc/arm-none-eabi/4.4.1/thumb2\libgcc.a(_arm_cmpdf2.o)
 .bss           0x00000000        0x0 c:/arduino/hardware/tools/g++_arm_none_eabi/bin/../lib/gcc/arm-none-eabi/4.4.1/thumb2\libgcc.a(_arm_cmpdf2.o)
 .data          0x00000000        0x0 c:/arduino/hardware/tools/g++_arm_none_eabi/bin/../lib/gcc/arm-none-eabi/4.4.1/thumb2\libgcc.a(_arm_fixdfsi.o)
 .bss           0x00000000        0x0 c:/arduino/hardware/tools/g++_arm_none_eabi/bin/../lib/gcc/arm-none-eabi/4.4.1/thumb2\libgcc.a(_arm_fixdfsi.o)
 .data          0x00000000        0x0 c:/arduino/hardware/tools/g++_arm_none_eabi/bin/../lib/gcc/arm-none-eabi/4.4.1/thumb2\libgcc.a(_arm_fixunsdfsi.o)
 .bss           0x00000000        0x0 c:/arduino/hardware/tools/g++_arm_none_eabi/bin/../lib/gcc/arm-none-eabi/4.4.1/thumb2\libgcc.a(_arm_fixunsdfsi.o)
 .data          0x00000000        0x0 c:/arduino/hardware/tools/g++_arm_none_eabi/bin/../lib/gcc/arm-none-eabi/4.4.1/thumb2\libgcc.a(_arm_truncdfsf2.o)
 .bss           0x00000000        0x0 c:/arduino/hardware/tools/g++_arm_none_eabi/bin/../lib/gcc/arm-none-eabi/4.4.1/thumb2\libgcc.a(_arm_truncdfsf2.o)
 .data          0x00000000        0x0 c:/arduino/hardware/tools/g++_arm_none_eabi/bin/../lib/gcc/arm-none-eabi/4.4.1/thumb2\libgcc.a(_arm_addsubsf3.o)
 .bss           0x00000000        0x0 c:/arduino/hardware/tools/g++_arm_none_eabi/bin/../lib/gcc/arm-none-eabi/4.4.1/thumb2\libgcc.a(_arm_addsubsf3.o)
 .data          0x00000000        0x0 c:/arduino/hardware/tools/g++_arm_none_eabi/bin/../lib/gcc/arm-none-eabi/4.4.1/thumb2\libgcc.a(_arm_muldivsf3.o)
 .bss           0x00000000        0x0 c:/arduino/hardware/tools/g++_arm_none_eabi/bin/../lib/gcc/arm-none-eabi/4.4.1/thumb2\libgcc.a(_arm_muldivsf3.o)
 .data          0x00000000        0x0 c:/arduino/hardware/tools/g++_arm_none_eabi/bin/../lib/gcc/arm-none-eabi/4.4.1/thumb2\libgcc.a(_arm_cmpsf2.o)
 .bss           0x00000000        0x0 c:/arduino/hardware/tools/g++_arm_none_eabi/bin/../lib/gcc/arm-none-eabi/4.4.1/thumb2\libgcc.a(_arm_cmpsf2.o)
 .data          0x00000000        0x0 c:/arduino/hardware/tools/g++_arm_none_eabi/bin/../lib/gcc/arm-none-eabi/4.4.1/../../../../arm-none-eabi/lib/thumb2\libc.a(lib_a-assert.o)
 .bss           0x00000000        0x0 c:/arduino/hardware/tools/g++_arm_none_eabi/bin/../lib/gcc/arm-none-eabi/4.4.1/../../../../arm-none-eabi/lib/thumb2\libc.a(lib_a-assert.o)
 .text          0x00000000        0x8 c:/arduino/hardware/tools/g++_arm_none_eabi/bin/../lib/gcc/arm-none-eabi/4.4.1/../../../../arm-none-eabi/lib/thumb2\libc.a(lib_a-atof.o)
 .data          0x00000000        0x0 c:/arduino/hardware/tools/g++_arm_none_eabi/bin/../lib/gcc/arm-none-eabi/4.4.1/../../../../arm-none-eabi/lib/thumb2\libc.a(lib_a-atof.o)
 .bss           0x00000000        0x0 c:/arduino/hardware/tools/g++_arm_none_eabi/bin/../lib/gcc/arm-none-eabi/4.4.1/../../../../arm-none-eabi/lib/thumb2\libc.a(lib_a-atof.o)
 .text          0x00000000       0x10 c:/arduino/hardware/tools/g++_arm_none_eabi/bin/../lib/gcc/arm-none-eabi/4.4.1/../../../../arm-none-eabi/lib/thumb2\libc.a(lib_a-atol.o)
 .data          0x00000000        0x0 c:/arduino/hardware/tools/g++_arm_none_eabi/bin/../lib/gcc/arm-none-eabi/4.4.1/../../../../arm-none-eabi/lib/thumb2\libc.a(lib_a-atol.o)
 .bss           0x00000000        0x0 c:/arduino/hardware/tools/g++_arm_none_eabi/bin/../lib/gcc/arm-none-eabi/4.4.1/../../../../arm-none-eabi/lib/thumb2\libc.a(lib_a-atol.o)
 .data          0x00000000        0x0 c:/arduino/hardware/tools/g++_arm_none_eabi/bin/../lib/gcc/arm-none-eabi/4.4.1/../../../../arm-none-eabi/lib/thumb2\libc.a(lib_a-fiprintf.o)
 .bss           0x00000000        0x0 c:/arduino/hardware/tools/g++_arm_none_eabi/bin/../lib/gcc/arm-none-eabi/4.4.1/../../../../arm-none-eabi/lib/thumb2\libc.a(lib_a-fiprintf.o)
 .text          0x00000000        0x0 c:/arduino/hardware/tools/g++_arm_none_eabi/bin/../lib/gcc/arm-none-eabi/4.4.1/../../../../arm-none-eabi/lib/thumb2\libc.a(lib_a-impure.o)
 .bss           0x00000000        0x0 c:/arduino/hardware/tools/g++_arm_none_eabi/bin/../lib/gcc/arm-none-eabi/4.4.1/../../../../arm-none-eabi/lib/thumb2\libc.a(lib_a-impure.o)
 .data          0x00000000        0x0 c:/arduino/hardware/tools/g++_arm_none_eabi/bin/../lib/gcc/arm-none-eabi/4.4.1/../../../../arm-none-eabi/lib/thumb2\libc.a(lib_a-init.o)
 .bss           0x00000000        0x0 c:/arduino/hardware/tools/g++_arm_none_eabi/bin/../lib/gcc/arm-none-eabi/4.4.1/../../../../arm-none-eabi/lib/thumb2\libc.a(lib_a-init.o)
 .data          0x00000000        0x0 c:/arduino/hardware/tools/g++_arm_none_eabi/bin/../lib/gcc/arm-none-eabi/4.4.1/../../../../arm-none-eabi/lib/thumb2\libc.a(lib_a-iprintf.o)
 .bss           0x00000000        0x0 c:/arduino/hardware/tools/g++_arm_none_eabi/bin/../lib/gcc/arm-none-eabi/4.4.1/../../../../arm-none-eabi/lib/thumb2\libc.a(lib_a-iprintf.o)
 .text          0x00000000       0x14 c:/arduino/hardware/tools/g++_arm_none_eabi/bin/../lib/gcc/arm-none-eabi/4.4.1/../../../../arm-none-eabi/lib/thumb2\libc.a(lib_a-isspace.o)
 .data          0x00000000        0x0 c:/arduino/hardware/tools/g++_arm_none_eabi/bin/../lib/gcc/arm-none-eabi/4.4.1/../../../../arm-none-eabi/lib/thumb2\libc.a(lib_a-isspace.o)
 .bss           0x00000000        0x0 c:/arduino/hardware/tools/g++_arm_none_eabi/bin/../lib/gcc/arm-none-eabi/4.4.1/../../../../arm-none-eabi/lib/thumb2\libc.a(lib_a-isspace.o)
 .text          0x00000000       0x20 c:/arduino/hardware/tools/g++_arm_none_eabi/bin/../lib/gcc/arm-none-eabi/4.4.1/../../../../arm-none-eabi/lib/thumb2\libc.a(lib_a-malloc.o)
 .data          0x00000000        0x0 c:/arduino/hardware/tools/g++_arm_none_eabi/bin/../lib/gcc/arm-none-eabi/4.4.1/../../../../arm-none-eabi/lib/thumb2\libc.a(lib_a-malloc.o)
 .bss           0x00000000        0x0 c:/arduino/hardware/tools/g++_arm_none_eabi/bin/../lib/gcc/arm-none-eabi/4.4.1/../../../../arm-none-eabi/lib/thumb2\libc.a(lib_a-malloc.o)
 .data          0x00000000        0x0 c:/arduino/hardware/tools/g++_arm_none_eabi/bin/../lib/gcc/arm-none-eabi/4.4.1/../../../../arm-none-eabi/lib/thumb2\libc.a(lib_a-memcpy.o)
 .bss           0x00000000        0x0 c:/arduino/hardware/tools/g++_arm_none_eabi/bin/../lib/gcc/arm-none-eabi/4.4.1/../../../../arm-none-eabi/lib/thumb2\libc.a(lib_a-memcpy.o)
 .data          0x00000000        0x0 c:/arduino/hardware/tools/g++_arm_none_eabi/bin/../lib/gcc/arm-none-eabi/4.4.1/../../../../arm-none-eabi/lib/thumb2\libc.a(lib_a-memmove.o)
 .bss           0x00000000        0x0 c:/arduino/hardware/tools/g++_arm_none_eabi/bin/../lib/gcc/arm-none-eabi/4.4.1/../../../../arm-none-eabi/lib/thumb2\libc.a(lib_a-memmove.o)
 .data          0x00000000        0x0 c:/arduino/hardware/tools/g++_arm_none_eabi/bin/../lib/gcc/arm-none-eabi/4.4.1/../../../../arm-none-eabi/lib/thumb2\libc.a(lib_a-memset.o)
 .bss           0x00000000        0x0 c:/arduino/hardware/tools/g++_arm_none_eabi/bin/../lib/gcc/arm-none-eabi/4.4.1/../../../../arm-none-eabi/lib/thumb2\libc.a(lib_a-memset.o)
 .data          0x00000000        0x0 c:/arduino/hardware/tools/g++_arm_none_eabi/bin/../lib/gcc/arm-none-eabi/4.4.1/../../../../arm-none-eabi/lib/thumb2\libc.a(lib_a-mlock.o)
 .bss           0x00000000        0x0 c:/arduino/hardware/tools/g++_arm_none_eabi/bin/../lib/gcc/arm-none-eabi/4.4.1/../../../../arm-none-eabi/lib/thumb2\libc.a(lib_a-mlock.o)
 .text          0x00000000       0x14 c:/arduino/hardware/tools/g++_arm_none_eabi/bin/../lib/gcc/arm-none-eabi/4.4.1/../../../../arm-none-eabi/lib/thumb2\libc.a(lib_a-realloc.o)
 .data          0x00000000        0x0 c:/arduino/hardware/tools/g++_arm_none_eabi/bin/../lib/gcc/arm-none-eabi/4.4.1/../../../../arm-none-eabi/lib/thumb2\libc.a(lib_a-realloc.o)
 .bss           0x00000000        0x0 c:/arduino/hardware/tools/g++_arm_none_eabi/bin/../lib/gcc/arm-none-eabi/4.4.1/../../../../arm-none-eabi/lib/thumb2\libc.a(lib_a-realloc.o)
 .data          0x00000000        0x0 c:/arduino/hardware/tools/g++_arm_none_eabi/bin/../lib/gcc/arm-none-eabi/4.4.1/../../../../arm-none-eabi/lib/thumb2\libc.a(lib_a-reallocr.o)
 .bss           0x00000000        0x0 c:/arduino/hardware/tools/g++_arm_none_eabi/bin/../lib/gcc/arm-none-eabi/4.4.1/../../../../arm-none-eabi/lib/thumb2\libc.a(lib_a-reallocr.o)
 .data          0x00000000        0x0 c:/arduino/hardware/tools/g++_arm_none_eabi/bin/../lib/gcc/arm-none-eabi/4.4.1/../../../../arm-none-eabi/lib/thumb2\libc.a(lib_a-sbrkr.o)
 .bss           0x00000000        0x0 c:/arduino/hardware/tools/g++_arm_none_eabi/bin/../lib/gcc/arm-none-eabi/4.4.1/../../../../arm-none-eabi/lib/thumb2\libc.a(lib_a-sbrkr.o)
 .text          0x00000000       0x94 c:/arduino/hardware/tools/g++_arm_none_eabi/bin/../lib/gcc/arm-none-eabi/4.4.1/../../../../arm-none-eabi/lib/thumb2\libc.a(lib_a-sprintf.o)
 .data          0x00000000        0x0 c:/arduino/hardware/tools/g++_arm_none_eabi/bin/../lib/gcc/arm-none-eabi/4.4.1/../../../../arm-none-eabi/lib/thumb2\libc.a(lib_a-sprintf.o)
 .bss           0x00000000        0x0 c:/arduino/hardware/tools/g++_arm_none_eabi/bin/../lib/gcc/arm-none-eabi/4.4.1/../../../../arm-none-eabi/lib/thumb2\libc.a(lib_a-sprintf.o)
 .text          0x00000000       0xc0 c:/arduino/hardware/tools/g++_arm_none_eabi/bin/../lib/gcc/arm-none-eabi/4.4.1/../../../../arm-none-eabi/lib/thumb2\libc.a(lib_a-strchr.o)
 .data          0x00000000        0x0 c:/arduino/hardware/tools/g++_arm_none_eabi/bin/../lib/gcc/arm-none-eabi/4.4.1/../../../../arm-none-eabi/lib/thumb2\libc.a(lib_a-strchr.o)
 .bss           0x00000000        0x0 c:/arduino/hardware/tools/g++_arm_none_eabi/bin/../lib/gcc/arm-none-eabi/4.4.1/../../../../arm-none-eabi/lib/thumb2\libc.a(lib_a-strchr.o)
 .text          0x00000000      0x1dc c:/arduino/hardware/tools/g++_arm_none_eabi/bin/../lib/gcc/arm-none-eabi/4.4.1/../../../../arm-none-eabi/lib/thumb2\libc.a(lib_a-strcmp.o)
 .data          0x00000000        0x0 c:/arduino/hardware/tools/g++_arm_none_eabi/bin/../lib/gcc/arm-none-eabi/4.4.1/../../../../arm-none-eabi/lib/thumb2\libc.a(lib_a-strcmp.o)
 .bss           0x00000000        0x0 c:/arduino/hardware/tools/g++_arm_none_eabi/bin/../lib/gcc/arm-none-eabi/4.4.1/../../../../arm-none-eabi/lib/thumb2\libc.a(lib_a-strcmp.o)
 .text          0x00000000       0xbc c:/arduino/hardware/tools/g++_arm_none_eabi/bin/../lib/gcc/arm-none-eabi/4.4.1/../../../../arm-none-eabi/lib/thumb2\libc.a(lib_a-strcpy.o)
 .data          0x00000000        0x0 c:/arduino/hardware/tools/g++_arm_none_eabi/bin/../lib/gcc/arm-none-eabi/4.4.1/../../../../arm-none-eabi/lib/thumb2\libc.a(lib_a-strcpy.o)
 .bss           0x00000000        0x0 c:/arduino/hardware/tools/g++_arm_none_eabi/bin/../lib/gcc/arm-none-eabi/4.4.1/../../../../arm-none-eabi/lib/thumb2\libc.a(lib_a-strcpy.o)
 .data          0x00000000        0x0 c:/arduino/hardware/tools/g++_arm_none_eabi/bin/../lib/gcc/arm-none-eabi/4.4.1/../../../../arm-none-eabi/lib/thumb2\libc.a(lib_a-strlen.o)
 .bss           0x00000000        0x0 c:/arduino/hardware/tools/g++_arm_none_eabi/bin/../lib/gcc/arm-none-eabi/4.4.1/../../../../arm-none-eabi/lib/thumb2\libc.a(lib_a-strlen.o)
 .text          0x00000000       0xa8 c:/arduino/hardware/tools/g++_arm_none_eabi/bin/../lib/gcc/arm-none-eabi/4.4.1/../../../../arm-none-eabi/lib/thumb2\libc.a(lib_a-strncmp.o)
 .data          0x00000000        0x0 c:/arduino/hardware/tools/g++_arm_none_eabi/bin/../lib/gcc/arm-none-eabi/4.4.1/../../../../arm-none-eabi/lib/thumb2\libc.a(lib_a-strncmp.o)
 .bss           0x00000000        0x0 c:/arduino/hardware/tools/g++_arm_none_eabi/bin/../lib/gcc/arm-none-eabi/4.4.1/../../../../arm-none-eabi/lib/thumb2\libc.a(lib_a-strncmp.o)
 .text          0x00000000       0x78 c:/arduino/hardware/tools/g++_arm_none_eabi/bin/../lib/gcc/arm-none-eabi/4.4.1/../../../../arm-none-eabi/lib/thumb2\libc.a(lib_a-strncpy.o)
 .data          0x00000000        0x0 c:/arduino/hardware/tools/g++_arm_none_eabi/bin/../lib/gcc/arm-none-eabi/4.4.1/../../../../arm-none-eabi/lib/thumb2\libc.a(lib_a-strncpy.o)
 .bss           0x00000000        0x0 c:/arduino/hardware/tools/g++_arm_none_eabi/bin/../lib/gcc/arm-none-eabi/4.4.1/../../../../arm-none-eabi/lib/thumb2\libc.a(lib_a-strncpy.o)
 .text          0x00000000       0x2c c:/arduino/hardware/tools/g++_arm_none_eabi/bin/../lib/gcc/arm-none-eabi/4.4.1/../../../../arm-none-eabi/lib/thumb2\libc.a(lib_a-strrchr.o)
 .data          0x00000000        0x0 c:/arduino/hardware/tools/g++_arm_none_eabi/bin/../lib/gcc/arm-none-eabi/4.4.1/../../../../arm-none-eabi/lib/thumb2\libc.a(lib_a-strrchr.o)
 .bss           0x00000000        0x0 c:/arduino/hardware/tools/g++_arm_none_eabi/bin/../lib/gcc/arm-none-eabi/4.4.1/../../../../arm-none-eabi/lib/thumb2\libc.a(lib_a-strrchr.o)
 .text          0x00000000      0x548 c:/arduino/hardware/tools/g++_arm_none_eabi/bin/../lib/gcc/arm-none-eabi/4.4.1/../../../../arm-none-eabi/lib/thumb2\libc.a(lib_a-strstr.o)
 .data          0x00000000        0x0 c:/arduino/hardware/tools/g++_arm_none_eabi/bin/../lib/gcc/arm-none-eabi/4.4.1/../../../../arm-none-eabi/lib/thumb2\libc.a(lib_a-strstr.o)
 .bss           0x00000000        0x0 c:/arduino/hardware/tools/g++_arm_none_eabi/bin/../lib/gcc/arm-none-eabi/4.4.1/../../../../arm-none-eabi/lib/thumb2\libc.a(lib_a-strstr.o)
 .text          0x00000000     0x1010 c:/arduino/hardware/tools/g++_arm_none_eabi/bin/../lib/gcc/arm-none-eabi/4.4.1/../../../../arm-none-eabi/lib/thumb2\libc.a(lib_a-strtod.o)
 .data          0x00000000       0x28 c:/arduino/hardware/tools/g++_arm_none_eabi/bin/../lib/gcc/arm-none-eabi/4.4.1/../../../../arm-none-eabi/lib/thumb2\libc.a(lib_a-strtod.o)
 .bss           0x00000000        0x0 c:/arduino/hardware/tools/g++_arm_none_eabi/bin/../lib/gcc/arm-none-eabi/4.4.1/../../../../arm-none-eabi/lib/thumb2\libc.a(lib_a-strtod.o)
 .rodata        0x00000000       0x28 c:/arduino/hardware/tools/g++_arm_none_eabi/bin/../lib/gcc/arm-none-eabi/4.4.1/../../../../arm-none-eabi/lib/thumb2\libc.a(lib_a-strtod.o)
 .rodata.str1.4
                0x00000000       0x10 c:/arduino/hardware/tools/g++_arm_none_eabi/bin/../lib/gcc/arm-none-eabi/4.4.1/../../../../arm-none-eabi/lib/thumb2\libc.a(lib_a-strtod.o)
 .text          0x00000000      0x158 c:/arduino/hardware/tools/g++_arm_none_eabi/bin/../lib/gcc/arm-none-eabi/4.4.1/../../../../arm-none-eabi/lib/thumb2\libc.a(lib_a-strtol.o)
 .data          0x00000000        0x0 c:/arduino/hardware/tools/g++_arm_none_eabi/bin/../lib/gcc/arm-none-eabi/4.4.1/../../../../arm-none-eabi/lib/thumb2\libc.a(lib_a-strtol.o)
 .bss           0x00000000        0x0 c:/arduino/hardware/tools/g++_arm_none_eabi/bin/../lib/gcc/arm-none-eabi/4.4.1/../../../../arm-none-eabi/lib/thumb2\libc.a(lib_a-strtol.o)
 .text          0x00000000     0x15a8 c:/arduino/hardware/tools/g++_arm_none_eabi/bin/../lib/gcc/arm-none-eabi/4.4.1/../../../../arm-none-eabi/lib/thumb2\libc.a(lib_a-svfprintf.o)
 .data          0x00000000        0x0 c:/arduino/hardware/tools/g++_arm_none_eabi/bin/../lib/gcc/arm-none-eabi/4.4.1/../../../../arm-none-eabi/lib/thumb2\libc.a(lib_a-svfprintf.o)
 .bss           0x00000000        0x0 c:/arduino/hardware/tools/g++_arm_none_eabi/bin/../lib/gcc/arm-none-eabi/4.4.1/../../../../arm-none-eabi/lib/thumb2\libc.a(lib_a-svfprintf.o)
 .rodata        0x00000000       0x20 c:/arduino/hardware/tools/g++_arm_none_eabi/bin/../lib/gcc/arm-none-eabi/4.4.1/../../../../arm-none-eabi/lib/thumb2\libc.a(lib_a-svfprintf.o)
 .rodata.str1.4
                0x00000000       0x44 c:/arduino/hardware/tools/g++_arm_none_eabi/bin/../lib/gcc/arm-none-eabi/4.4.1/../../../../arm-none-eabi/lib/thumb2\libc.a(lib_a-svfprintf.o)
 .text          0x00000000       0x18 c:/arduino/hardware/tools/g++_arm_none_eabi/bin/../lib/gcc/arm-none-eabi/4.4.1/../../../../arm-none-eabi/lib/thumb2\libc.a(lib_a-tolower.o)
 .data          0x00000000        0x0 c:/arduino/hardware/tools/g++_arm_none_eabi/bin/../lib/gcc/arm-none-eabi/4.4.1/../../../../arm-none-eabi/lib/thumb2\libc.a(lib_a-tolower.o)
 .bss           0x00000000        0x0 c:/arduino/hardware/tools/g++_arm_none_eabi/bin/../lib/gcc/arm-none-eabi/4.4.1/../../../../arm-none-eabi/lib/thumb2\libc.a(lib_a-tolower.o)
 .text          0x00000000       0x18 c:/arduino/hardware/tools/g++_arm_none_eabi/bin/../lib/gcc/arm-none-eabi/4.4.1/../../../../arm-none-eabi/lib/thumb2\libc.a(lib_a-toupper.o)
 .data          0x00000000        0x0 c:/arduino/hardware/tools/g++_arm_none_eabi/bin/../lib/gcc/arm-none-eabi/4.4.1/../../../../arm-none-eabi/lib/thumb2\libc.a(lib_a-toupper.o)
 .bss           0x00000000        0x0 c:/arduino/hardware/tools/g++_arm_none_eabi/bin/../lib/gcc/arm-none-eabi/4.4.1/../../../../arm-none-eabi/lib/thumb2\libc.a(lib_a-toupper.o)
 .data          0x00000000        0x0 c:/arduino/hardware/tools/g++_arm_none_eabi/bin/../lib/gcc/arm-none-eabi/4.4.1/../../../../arm-none-eabi/lib/thumb2\libc.a(lib_a-vfiprintf.o)
 .bss           0x00000000        0x0 c:/arduino/hardware/tools/g++_arm_none_eabi/bin/../lib/gcc/arm-none-eabi/4.4.1/../../../../arm-none-eabi/lib/thumb2\libc.a(lib_a-vfiprintf.o)
 .data          0x00000000        0x0 c:/arduino/hardware/tools/g++_arm_none_eabi/bin/../lib/gcc/arm-none-eabi/4.4.1/../../../../arm-none-eabi/lib/thumb2\libc.a(lib_a-wsetup.o)
 .bss           0x00000000        0x0 c:/arduino/hardware/tools/g++_arm_none_eabi/bin/../lib/gcc/arm-none-eabi/4.4.1/../../../../arm-none-eabi/lib/thumb2\libc.a(lib_a-wsetup.o)
 .data          0x00000000        0x0 c:/arduino/hardware/tools/g++_arm_none_eabi/bin/../lib/gcc/arm-none-eabi/4.4.1/../../../../arm-none-eabi/lib/thumb2\libc.a(lib_a-abort.o)
 .bss           0x00000000        0x0 c:/arduino/hardware/tools/g++_arm_none_eabi/bin/../lib/gcc/arm-none-eabi/4.4.1/../../../../arm-none-eabi/lib/thumb2\libc.a(lib_a-abort.o)
 .text          0x00000000        0x0 c:/arduino/hardware/tools/g++_arm_none_eabi/bin/../lib/gcc/arm-none-eabi/4.4.1/../../../../arm-none-eabi/lib/thumb2\libc.a(lib_a-ctype_.o)
 .data          0x00000000        0x8 c:/arduino/hardware/tools/g++_arm_none_eabi/bin/../lib/gcc/arm-none-eabi/4.4.1/../../../../arm-none-eabi/lib/thumb2\libc.a(lib_a-ctype_.o)
 .bss           0x00000000        0x0 c:/arduino/hardware/tools/g++_arm_none_eabi/bin/../lib/gcc/arm-none-eabi/4.4.1/../../../../arm-none-eabi/lib/thumb2\libc.a(lib_a-ctype_.o)
 .rodata        0x00000000      0x104 c:/arduino/hardware/tools/g++_arm_none_eabi/bin/../lib/gcc/arm-none-eabi/4.4.1/../../../../arm-none-eabi/lib/thumb2\libc.a(lib_a-ctype_.o)
 .text          0x00000000      0xfb8 c:/arduino/hardware/tools/g++_arm_none_eabi/bin/../lib/gcc/arm-none-eabi/4.4.1/../../../../arm-none-eabi/lib/thumb2\libc.a(lib_a-dtoa.o)
 .data          0x00000000        0x0 c:/arduino/hardware/tools/g++_arm_none_eabi/bin/../lib/gcc/arm-none-eabi/4.4.1/../../../../arm-none-eabi/lib/thumb2\libc.a(lib_a-dtoa.o)
 .bss           0x00000000        0x0 c:/arduino/hardware/tools/g++_arm_none_eabi/bin/../lib/gcc/arm-none-eabi/4.4.1/../../../../arm-none-eabi/lib/thumb2\libc.a(lib_a-dtoa.o)
 .rodata.str1.4
                0x00000000       0x14 c:/arduino/hardware/tools/g++_arm_none_eabi/bin/../lib/gcc/arm-none-eabi/4.4.1/../../../../arm-none-eabi/lib/thumb2\libc.a(lib_a-dtoa.o)
 .data          0x00000000        0x0 c:/arduino/hardware/tools/g++_arm_none_eabi/bin/../lib/gcc/arm-none-eabi/4.4.1/../../../../arm-none-eabi/lib/thumb2\libc.a(lib_a-fflush.o)
 .bss           0x00000000        0x0 c:/arduino/hardware/tools/g++_arm_none_eabi/bin/../lib/gcc/arm-none-eabi/4.4.1/../../../../arm-none-eabi/lib/thumb2\libc.a(lib_a-fflush.o)
 .data          0x00000000        0x0 c:/arduino/hardware/tools/g++_arm_none_eabi/bin/../lib/gcc/arm-none-eabi/4.4.1/../../../../arm-none-eabi/lib/thumb2\libc.a(lib_a-findfp.o)
 .bss           0x00000000        0x0 c:/arduino/hardware/tools/g++_arm_none_eabi/bin/../lib/gcc/arm-none-eabi/4.4.1/../../../../arm-none-eabi/lib/thumb2\libc.a(lib_a-findfp.o)
 .data          0x00000000        0x0 c:/arduino/hardware/tools/g++_arm_none_eabi/bin/../lib/gcc/arm-none-eabi/4.4.1/../../../../arm-none-eabi/lib/thumb2\libc.a(lib_a-freer.o)
 .bss           0x00000000        0x0 c:/arduino/hardware/tools/g++_arm_none_eabi/bin/../lib/gcc/arm-none-eabi/4.4.1/../../../../arm-none-eabi/lib/thumb2\libc.a(lib_a-freer.o)
 .data          0x00000000        0x0 c:/arduino/hardware/tools/g++_arm_none_eabi/bin/../lib/gcc/arm-none-eabi/4.4.1/../../../../arm-none-eabi/lib/thumb2\libc.a(lib_a-fvwrite.o)
 .bss           0x00000000        0x0 c:/arduino/hardware/tools/g++_arm_none_eabi/bin/../lib/gcc/arm-none-eabi/4.4.1/../../../../arm-none-eabi/lib/thumb2\libc.a(lib_a-fvwrite.o)
 .data          0x00000000        0x0 c:/arduino/hardware/tools/g++_arm_none_eabi/bin/../lib/gcc/arm-none-eabi/4.4.1/../../../../arm-none-eabi/lib/thumb2\libc.a(lib_a-fwalk.o)
 .bss           0x00000000        0x0 c:/arduino/hardware/tools/g++_arm_none_eabi/bin/../lib/gcc/arm-none-eabi/4.4.1/../../../../arm-none-eabi/lib/thumb2\libc.a(lib_a-fwalk.o)
 .text          0x00000000      0x5a8 c:/arduino/hardware/tools/g++_arm_none_eabi/bin/../lib/gcc/arm-none-eabi/4.4.1/../../../../arm-none-eabi/lib/thumb2\libc.a(lib_a-gdtoa-gethex.o)
 .data          0x00000000        0x0 c:/arduino/hardware/tools/g++_arm_none_eabi/bin/../lib/gcc/arm-none-eabi/4.4.1/../../../../arm-none-eabi/lib/thumb2\libc.a(lib_a-gdtoa-gethex.o)
 .bss           0x00000000        0x0 c:/arduino/hardware/tools/g++_arm_none_eabi/bin/../lib/gcc/arm-none-eabi/4.4.1/../../../../arm-none-eabi/lib/thumb2\libc.a(lib_a-gdtoa-gethex.o)
 .rodata.str1.4
                0x00000000       0x1c c:/arduino/hardware/tools/g++_arm_none_eabi/bin/../lib/gcc/arm-none-eabi/4.4.1/../../../../arm-none-eabi/lib/thumb2\libc.a(lib_a-gdtoa-gethex.o)
 COMMON         0x00000000      0x100 c:/arduino/hardware/tools/g++_arm_none_eabi/bin/../lib/gcc/arm-none-eabi/4.4.1/../../../../arm-none-eabi/lib/thumb2\libc.a(lib_a-gdtoa-gethex.o)
 .text          0x00000000      0x1bc c:/arduino/hardware/tools/g++_arm_none_eabi/bin/../lib/gcc/arm-none-eabi/4.4.1/../../../../arm-none-eabi/lib/thumb2\libc.a(lib_a-gdtoa-hexnan.o)
 .data          0x00000000        0x0 c:/arduino/hardware/tools/g++_arm_none_eabi/bin/../lib/gcc/arm-none-eabi/4.4.1/../../../../arm-none-eabi/lib/thumb2\libc.a(lib_a-gdtoa-hexnan.o)
 .bss           0x00000000        0x0 c:/arduino/hardware/tools/g++_arm_none_eabi/bin/../lib/gcc/arm-none-eabi/4.4.1/../../../../arm-none-eabi/lib/thumb2\libc.a(lib_a-gdtoa-hexnan.o)
 .text          0x00000000       0x74 c:/arduino/hardware/tools/g++_arm_none_eabi/bin/../lib/gcc/arm-none-eabi/4.4.1/../../../../arm-none-eabi/lib/thumb2\libc.a(lib_a-locale.o)
 .data          0x00000000       0x10 c:/arduino/hardware/tools/g++_arm_none_eabi/bin/../lib/gcc/arm-none-eabi/4.4.1/../../../../arm-none-eabi/lib/thumb2\libc.a(lib_a-locale.o)
 .bss           0x00000000        0xc c:/arduino/hardware/tools/g++_arm_none_eabi/bin/../lib/gcc/arm-none-eabi/4.4.1/../../../../arm-none-eabi/lib/thumb2\libc.a(lib_a-locale.o)
 .rodata        0x00000000       0x34 c:/arduino/hardware/tools/g++_arm_none_eabi/bin/../lib/gcc/arm-none-eabi/4.4.1/../../../../arm-none-eabi/lib/thumb2\libc.a(lib_a-locale.o)
 .rodata.str1.4
                0x00000000       0x18 c:/arduino/hardware/tools/g++_arm_none_eabi/bin/../lib/gcc/arm-none-eabi/4.4.1/../../../../arm-none-eabi/lib/thumb2\libc.a(lib_a-locale.o)
 .data          0x00000000        0x0 c:/arduino/hardware/tools/g++_arm_none_eabi/bin/../lib/gcc/arm-none-eabi/4.4.1/../../../../arm-none-eabi/lib/thumb2\libc.a(lib_a-makebuf.o)
 .bss           0x00000000        0x0 c:/arduino/hardware/tools/g++_arm_none_eabi/bin/../lib/gcc/arm-none-eabi/4.4.1/../../../../arm-none-eabi/lib/thumb2\libc.a(lib_a-makebuf.o)
 .data          0x00000000        0x0 c:/arduino/hardware/tools/g++_arm_none_eabi/bin/../lib/gcc/arm-none-eabi/4.4.1/../../../../arm-none-eabi/lib/thumb2\libc.a(lib_a-memchr.o)
 .bss           0x00000000        0x0 c:/arduino/hardware/tools/g++_arm_none_eabi/bin/../lib/gcc/arm-none-eabi/4.4.1/../../../../arm-none-eabi/lib/thumb2\libc.a(lib_a-memchr.o)
 .text          0x00000000       0x64 c:/arduino/hardware/tools/g++_arm_none_eabi/bin/../lib/gcc/arm-none-eabi/4.4.1/../../../../arm-none-eabi/lib/thumb2\libc.a(lib_a-memcmp.o)
 .data          0x00000000        0x0 c:/arduino/hardware/tools/g++_arm_none_eabi/bin/../lib/gcc/arm-none-eabi/4.4.1/../../../../arm-none-eabi/lib/thumb2\libc.a(lib_a-memcmp.o)
 .bss           0x00000000        0x0 c:/arduino/hardware/tools/g++_arm_none_eabi/bin/../lib/gcc/arm-none-eabi/4.4.1/../../../../arm-none-eabi/lib/thumb2\libc.a(lib_a-memcmp.o)
 .text          0x00000000      0x958 c:/arduino/hardware/tools/g++_arm_none_eabi/bin/../lib/gcc/arm-none-eabi/4.4.1/../../../../arm-none-eabi/lib/thumb2\libc.a(lib_a-mprec.o)
 .data          0x00000000        0x0 c:/arduino/hardware/tools/g++_arm_none_eabi/bin/../lib/gcc/arm-none-eabi/4.4.1/../../../../arm-none-eabi/lib/thumb2\libc.a(lib_a-mprec.o)
 .bss           0x00000000        0x0 c:/arduino/hardware/tools/g++_arm_none_eabi/bin/../lib/gcc/arm-none-eabi/4.4.1/../../../../arm-none-eabi/lib/thumb2\libc.a(lib_a-mprec.o)
 .rodata        0x00000000      0x128 c:/arduino/hardware/tools/g++_arm_none_eabi/bin/../lib/gcc/arm-none-eabi/4.4.1/../../../../arm-none-eabi/lib/thumb2\libc.a(lib_a-mprec.o)
 .text          0x00000000      0x10c c:/arduino/hardware/tools/g++_arm_none_eabi/bin/../lib/gcc/arm-none-eabi/4.4.1/../../../../arm-none-eabi/lib/thumb2\libc.a(lib_a-reent.o)
 .data          0x00000000        0x0 c:/arduino/hardware/tools/g++_arm_none_eabi/bin/../lib/gcc/arm-none-eabi/4.4.1/../../../../arm-none-eabi/lib/thumb2\libc.a(lib_a-reent.o)
 .bss           0x00000000        0x0 c:/arduino/hardware/tools/g++_arm_none_eabi/bin/../lib/gcc/arm-none-eabi/4.4.1/../../../../arm-none-eabi/lib/thumb2\libc.a(lib_a-reent.o)
 .data          0x00000000        0x0 c:/arduino/hardware/tools/g++_arm_none_eabi/bin/../lib/gcc/arm-none-eabi/4.4.1/../../../../arm-none-eabi/lib/thumb2\libc.a(lib_a-signal.o)
 .bss           0x00000000        0x0 c:/arduino/hardware/tools/g++_arm_none_eabi/bin/../lib/gcc/arm-none-eabi/4.4.1/../../../../arm-none-eabi/lib/thumb2\libc.a(lib_a-signal.o)
 .data          0x00000000        0x0 c:/arduino/hardware/tools/g++_arm_none_eabi/bin/../lib/gcc/arm-none-eabi/4.4.1/../../../../arm-none-eabi/lib/thumb2\libc.a(lib_a-signalr.o)
 .bss           0x00000000        0x0 c:/arduino/hardware/tools/g++_arm_none_eabi/bin/../lib/gcc/arm-none-eabi/4.4.1/../../../../arm-none-eabi/lib/thumb2\libc.a(lib_a-signalr.o)
 .data          0x00000000        0x0 c:/arduino/hardware/tools/g++_arm_none_eabi/bin/../lib/gcc/arm-none-eabi/4.4.1/../../../../arm-none-eabi/lib/thumb2\libc.a(lib_a-stdio.o)
 .bss           0x00000000        0x0 c:/arduino/hardware/tools/g++_arm_none_eabi/bin/../lib/gcc/arm-none-eabi/4.4.1/../../../../arm-none-eabi/lib/thumb2\libc.a(lib_a-stdio.o)
 .data          0x00000000        0x0 c:/arduino/hardware/tools/g++_arm_none_eabi/bin/../lib/gcc/arm-none-eabi/4.4.1/../../../../arm-none-eabi/lib/thumb2\libc.a(lib_a-writer.o)
 .bss           0x00000000        0x0 c:/arduino/hardware/tools/g++_arm_none_eabi/bin/../lib/gcc/arm-none-eabi/4.4.1/../../../../arm-none-eabi/lib/thumb2\libc.a(lib_a-writer.o)
 .text          0x00000000       0x5c c:/arduino/hardware/tools/g++_arm_none_eabi/bin/../lib/gcc/arm-none-eabi/4.4.1/../../../../arm-none-eabi/lib/thumb2\libc.a(lib_a-callocr.o)
 .data          0x00000000        0x0 c:/arduino/hardware/tools/g++_arm_none_eabi/bin/../lib/gcc/arm-none-eabi/4.4.1/../../../../arm-none-eabi/lib/thumb2\libc.a(lib_a-callocr.o)
 .bss           0x00000000        0x0 c:/arduino/hardware/tools/g++_arm_none_eabi/bin/../lib/gcc/arm-none-eabi/4.4.1/../../../../arm-none-eabi/lib/thumb2\libc.a(lib_a-callocr.o)
 .data          0x00000000        0x0 c:/arduino/hardware/tools/g++_arm_none_eabi/bin/../lib/gcc/arm-none-eabi/4.4.1/../../../../arm-none-eabi/lib/thumb2\libc.a(lib_a-closer.o)
 .bss           0x00000000        0x0 c:/arduino/hardware/tools/g++_arm_none_eabi/bin/../lib/gcc/arm-none-eabi/4.4.1/../../../../arm-none-eabi/lib/thumb2\libc.a(lib_a-closer.o)
 .data          0x00000000        0x0 c:/arduino/hardware/tools/g++_arm_none_eabi/bin/../lib/gcc/arm-none-eabi/4.4.1/../../../../arm-none-eabi/lib/thumb2\libc.a(lib_a-fclose.o)
 .bss           0x00000000        0x0 c:/arduino/hardware/tools/g++_arm_none_eabi/bin/../lib/gcc/arm-none-eabi/4.4.1/../../../../arm-none-eabi/lib/thumb2\libc.a(lib_a-fclose.o)
 .data          0x00000000        0x0 c:/arduino/hardware/tools/g++_arm_none_eabi/bin/../lib/gcc/arm-none-eabi/4.4.1/../../../../arm-none-eabi/lib/thumb2\libc.a(lib_a-fstatr.o)
 .bss           0x00000000        0x0 c:/arduino/hardware/tools/g++_arm_none_eabi/bin/../lib/gcc/arm-none-eabi/4.4.1/../../../../arm-none-eabi/lib/thumb2\libc.a(lib_a-fstatr.o)
 .data          0x00000000        0x0 c:/arduino/hardware/tools/g++_arm_none_eabi/bin/../lib/gcc/arm-none-eabi/4.4.1/../../../../arm-none-eabi/lib/thumb2\libc.a(lib_a-isattyr.o)
 .bss           0x00000000        0x0 c:/arduino/hardware/tools/g++_arm_none_eabi/bin/../lib/gcc/arm-none-eabi/4.4.1/../../../../arm-none-eabi/lib/thumb2\libc.a(lib_a-isattyr.o)
 .data          0x00000000        0x0 c:/arduino/hardware/tools/g++_arm_none_eabi/bin/../lib/gcc/arm-none-eabi/4.4.1/../../../../arm-none-eabi/lib/thumb2\libc.a(lib_a-lseekr.o)
 .bss           0x00000000        0x0 c:/arduino/hardware/tools/g++_arm_none_eabi/bin/../lib/gcc/arm-none-eabi/4.4.1/../../../../arm-none-eabi/lib/thumb2\libc.a(lib_a-lseekr.o)
 .data          0x00000000        0x0 c:/arduino/hardware/tools/g++_arm_none_eabi/bin/../lib/gcc/arm-none-eabi/4.4.1/../../../../arm-none-eabi/lib/thumb2\libc.a(lib_a-readr.o)
 .bss           0x00000000        0x0 c:/arduino/hardware/tools/g++_arm_none_eabi/bin/../lib/gcc/arm-none-eabi/4.4.1/../../../../arm-none-eabi/lib/thumb2\libc.a(lib_a-readr.o)
 .data          0x00000000        0x0 c:/arduino/hardware/tools/g++_arm_none_eabi/bin/../lib/gcc/arm-none-eabi/4.4.1/thumb2\libgcc.a(_udivsi3.o)
 .bss           0x00000000        0x0 c:/arduino/hardware/tools/g++_arm_none_eabi/bin/../lib/gcc/arm-none-eabi/4.4.1/thumb2\libgcc.a(_udivsi3.o)
 .data          0x00000000        0x0 c:/arduino/hardware/tools/g++_arm_none_eabi/bin/../lib/gcc/arm-none-eabi/4.4.1/thumb2\libgcc.a(_dvmd_tls.o)
 .bss           0x00000000        0x0 c:/arduino/hardware/tools/g++_arm_none_eabi/bin/../lib/gcc/arm-none-eabi/4.4.1/thumb2\libgcc.a(_dvmd_tls.o)
 .data          0x00000000        0x0 c:/arduino/hardware/tools/g++_arm_none_eabi/bin/../lib/gcc/arm-none-eabi/4.4.1/thumb2\libgcc.a(_aeabi_uldivmod.o)
 .bss           0x00000000        0x0 c:/arduino/hardware/tools/g++_arm_none_eabi/bin/../lib/gcc/arm-none-eabi/4.4.1/thumb2\libgcc.a(_aeabi_uldivmod.o)
 .data          0x00000000        0x0 c:/arduino/hardware/tools/g++_arm_none_eabi/bin/../lib/gcc/arm-none-eabi/4.4.1/thumb2\libgcc.a(bpabi.o)
 .bss           0x00000000        0x0 c:/arduino/hardware/tools/g++_arm_none_eabi/bin/../lib/gcc/arm-none-eabi/4.4.1/thumb2\libgcc.a(bpabi.o)
 .data          0x00000000        0x0 c:/arduino/hardware/tools/g++_arm_none_eabi/bin/../lib/gcc/arm-none-eabi/4.4.1/thumb2\libgcc.a(_divdi3.o)
 .bss           0x00000000        0x0 c:/arduino/hardware/tools/g++_arm_none_eabi/bin/../lib/gcc/arm-none-eabi/4.4.1/thumb2\libgcc.a(_divdi3.o)
 .ARM.extab     0x00000000        0x0 c:/arduino/hardware/tools/g++_arm_none_eabi/bin/../lib/gcc/arm-none-eabi/4.4.1/thumb2\libgcc.a(_divdi3.o)
 .data          0x00000000        0x0 c:/arduino/hardware/tools/g++_arm_none_eabi/bin/../lib/gcc/arm-none-eabi/4.4.1/thumb2\libgcc.a(_udivdi3.o)
 .bss           0x00000000        0x0 c:/arduino/hardware/tools/g++_arm_none_eabi/bin/../lib/gcc/arm-none-eabi/4.4.1/thumb2\libgcc.a(_udivdi3.o)
 .ARM.extab     0x00000000        0x0 c:/arduino/hardware/tools/g++_arm_none_eabi/bin/../lib/gcc/arm-none-eabi/4.4.1/thumb2\libgcc.a(_udivdi3.o)
 .text          0x00000000        0x0 c:/arduino/hardware/tools/g++_arm_none_eabi/bin/../lib/gcc/arm-none-eabi/4.4.1/thumb2/crtend.o
 .data          0x00000000        0x0 c:/arduino/hardware/tools/g++_arm_none_eabi/bin/../lib/gcc/arm-none-eabi/4.4.1/thumb2/crtend.o
 .bss           0x00000000        0x0 c:/arduino/hardware/tools/g++_arm_none_eabi/bin/../lib/gcc/arm-none-eabi/4.4.1/thumb2/crtend.o
 .jcr           0x00000000        0x4 c:/arduino/hardware/tools/g++_arm_none_eabi/bin/../lib/gcc/arm-none-eabi/4.4.1/thumb2/crtend.o
 .text          0x00000000        0x0 c:/arduino/hardware/tools/g++_arm_none_eabi/bin/../lib/gcc/arm-none-eabi/4.4.1/thumb2/crtn.o
 .data          0x00000000        0x0 c:/arduino/hardware/tools/g++_arm_none_eabi/bin/../lib/gcc/arm-none-eabi/4.4.1/thumb2/crtn.o
 .bss           0x00000000        0x0 c:/arduino/hardware/tools/g++_arm_none_eabi/bin/../lib/gcc/arm-none-eabi/4.4.1/thumb2/crtn.o

Memory Configuration

Name             Origin             Length             Attributes
rom              0x00080000         0x00080000         xr
sram0            0x20000000         0x00010000         xrw
sram1            0x20080000         0x00008000         xrw
ram              0x20070000         0x00018000         xrw
*default*        0x00000000         0xffffffff

Linker script and memory map

LOAD c:/arduino/hardware/tools/g++_arm_none_eabi/bin/../lib/gcc/arm-none-eabi/4.4.1/thumb2/crti.o
LOAD c:/arduino/hardware/tools/g++_arm_none_eabi/bin/../lib/gcc/arm-none-eabi/4.4.1/thumb2/crtbegin.o
LOAD c:/arduino/hardware/tools/g++_arm_none_eabi/bin/../lib/gcc/arm-none-eabi/4.4.1/thumb2\libgcc.a
START GROUP
LOAD C:/Users/jon_000/Git/ALFRED_CORE/Release/arduino/syscalls_sam3.c.o
LOAD ./ALFRED_CORE.cpp.o
LOAD ./Libraries/Wire/Wire.cpp.o
LOAD ./Libraries/I2C_PWM_Servo_Driver/Adafruit_PWMServoDriver.cpp.o
LOAD ./Libraries/DueTimer/DueTimer.cpp.o
LOAD C:/Users/jon_000/Git/ALFRED_CORE/Release/arduino.ar
LOAD C:/Arduino/hardware/arduino/sam/variants/arduino_due_x/libsam_sam3x8e_gcc_rel.a
LOAD C:/Users/jon_000/Git/ALFRED_CORE/Release/arduino.ar
END GROUP
LOAD c:/arduino/hardware/tools/g++_arm_none_eabi/bin/../lib/gcc/arm-none-eabi/4.4.1/../../../../arm-none-eabi/lib/thumb2\libstdc++.a
LOAD c:/arduino/hardware/tools/g++_arm_none_eabi/bin/../lib/gcc/arm-none-eabi/4.4.1/../../../../arm-none-eabi/lib/thumb2\libm.a
START GROUP
LOAD c:/arduino/hardware/tools/g++_arm_none_eabi/bin/../lib/gcc/arm-none-eabi/4.4.1/thumb2\libgcc.a
LOAD c:/arduino/hardware/tools/g++_arm_none_eabi/bin/../lib/gcc/arm-none-eabi/4.4.1/../../../../arm-none-eabi/lib/thumb2\libc.a
END GROUP
LOAD c:/arduino/hardware/tools/g++_arm_none_eabi/bin/../lib/gcc/arm-none-eabi/4.4.1/thumb2/crtend.o
LOAD c:/arduino/hardware/tools/g++_arm_none_eabi/bin/../lib/gcc/arm-none-eabi/4.4.1/thumb2/crtn.o

.text           0x00080000     0x8570
                0x00080000                . = ALIGN (0x4)
                0x00080000                _sfixed = .
 *(.vectors .vectors.*)
 .vectors       0x00080000       0xf4 C:/Arduino/hardware/arduino/sam/variants/arduino_due_x/libsam_sam3x8e_gcc_rel.a(startup_sam3xa.o)
                0x00080000                exception_table
 *(.text .text.* .gnu.linkonce.t.*)
 .text          0x000800f4       0x30 c:/arduino/hardware/tools/g++_arm_none_eabi/bin/../lib/gcc/arm-none-eabi/4.4.1/thumb2/crtbegin.o
 .text._sbrk    0x00080124       0x20 C:/Users/jon_000/Git/ALFRED_CORE/Release/arduino/syscalls_sam3.c.o
                0x00080124                _sbrk
 .text._close   0x00080144        0x6 C:/Users/jon_000/Git/ALFRED_CORE/Release/arduino/syscalls_sam3.c.o
                0x00080144                _close
 .text._fstat   0x0008014a        0xa C:/Users/jon_000/Git/ALFRED_CORE/Release/arduino/syscalls_sam3.c.o
                0x0008014a                _fstat
 .text._isatty  0x00080154        0x4 C:/Users/jon_000/Git/ALFRED_CORE/Release/arduino/syscalls_sam3.c.o
                0x00080154                _isatty
 .text._lseek   0x00080158        0x4 C:/Users/jon_000/Git/ALFRED_CORE/Release/arduino/syscalls_sam3.c.o
                0x00080158                _lseek
 .text._read    0x0008015c        0x4 C:/Users/jon_000/Git/ALFRED_CORE/Release/arduino/syscalls_sam3.c.o
                0x0008015c                _read
 .text._write   0x00080160       0x20 C:/Users/jon_000/Git/ALFRED_CORE/Release/arduino/syscalls_sam3.c.o
                0x00080160                _write
 .text._kill    0x00080180        0x2 C:/Users/jon_000/Git/ALFRED_CORE/Release/arduino/syscalls_sam3.c.o
                0x00080180                _kill
 .text._getpid  0x00080182        0x6 C:/Users/jon_000/Git/ALFRED_CORE/Release/arduino/syscalls_sam3.c.o
                0x00080182                _getpid
 .text._exit    0x00080188       0x10 C:/Users/jon_000/Git/ALFRED_CORE/Release/arduino/syscalls_sam3.c.o
                0x00080188                _exit
 .text._Z12parseCommandPcPih
                0x00080198       0x76 ./ALFRED_CORE.cpp.o
                0x00080198                parseCommand(char*, int*, unsigned char)
 *fill*         0x0008020e        0x2 00
 .text._Z5resetv
                0x00080210       0x18 ./ALFRED_CORE.cpp.o
                0x00080210                reset()
 .text._Z15timeout_handlerv
                0x00080228        0x4 ./ALFRED_CORE.cpp.o
                0x00080228                timeout_handler()
 .text.loop     0x0008022c       0xcc ./ALFRED_CORE.cpp.o
                0x0008022c                loop
 .text.setup    0x000802f8       0x94 ./ALFRED_CORE.cpp.o
                0x000802f8                setup
 .text._GLOBAL__I_pwmR
                0x0008038c       0x20 ./ALFRED_CORE.cpp.o
 .text._ZN7TwoWireC1EP3TwiPFvvE
                0x000803ac       0x3c ./Libraries/Wire/Wire.cpp.o
                0x000803ac                TwoWire::TwoWire(Twi*, void (*)())
 .text._ZN7TwoWire17beginTransmissionEh
                0x000803e8       0x12 ./Libraries/Wire/Wire.cpp.o
                0x000803e8                TwoWire::beginTransmission(unsigned char)
 .text._ZN7TwoWire5writeEh
                0x000803fa       0x3a ./Libraries/Wire/Wire.cpp.o
                0x000803fa                TwoWire::write(unsigned char)
 .text._ZN7TwoWire5writeEPKhj
                0x00080434       0x5e ./Libraries/Wire/Wire.cpp.o
                0x00080434                TwoWire::write(unsigned char const*, unsigned int)
 .text._ZN7TwoWire9availableEv
                0x00080492        0xc ./Libraries/Wire/Wire.cpp.o
                0x00080492                TwoWire::available()
 .text._ZN7TwoWire4readEv
                0x0008049e       0x20 ./Libraries/Wire/Wire.cpp.o
                0x0008049e                TwoWire::read()
 .text._ZN7TwoWire4peekEv
                0x000804be       0x18 ./Libraries/Wire/Wire.cpp.o
                0x000804be                TwoWire::peek()
 .text._ZN7TwoWire5flushEv
                0x000804d6        0x2 ./Libraries/Wire/Wire.cpp.o
                0x000804d6                TwoWire::flush()
 .text._ZL10Wire1_Initv
                0x000804d8       0x54 ./Libraries/Wire/Wire.cpp.o
 .text._ZL9Wire_Initv
                0x0008052c       0x54 ./Libraries/Wire/Wire.cpp.o
 .text._ZN7TwoWire9onServiceEv
                0x00080580      0x130 ./Libraries/Wire/Wire.cpp.o
                0x00080580                TwoWire::onService()
 .text.TWI0_Handler
                0x000806b0        0xc ./Libraries/Wire/Wire.cpp.o
                0x000806b0                TWI0_Handler
 .text.TWI1_Handler
                0x000806bc        0xc ./Libraries/Wire/Wire.cpp.o
                0x000806bc                TWI1_Handler
 .text._ZN7TwoWire15endTransmissionEh
                0x000806c8       0xb0 ./Libraries/Wire/Wire.cpp.o
                0x000806c8                TwoWire::endTransmission(unsigned char)
 .text._ZN7TwoWire15endTransmissionEv
                0x00080778        0x6 ./Libraries/Wire/Wire.cpp.o
                0x00080778                TwoWire::endTransmission()
 *fill*         0x0008077e        0x2 00
 .text._ZN7TwoWire11requestFromEhhh
                0x00080780       0x8c ./Libraries/Wire/Wire.cpp.o
                0x00080780                TwoWire::requestFrom(unsigned char, unsigned char, unsigned char)
 .text._ZN7TwoWire11requestFromEhh
                0x0008080c        0x6 ./Libraries/Wire/Wire.cpp.o
                0x0008080c                TwoWire::requestFrom(unsigned char, unsigned char)
 *fill*         0x00080812        0x2 00
 .text._ZN7TwoWire5beginEv
                0x00080814       0x30 ./Libraries/Wire/Wire.cpp.o
                0x00080814                TwoWire::begin()
 .text._GLOBAL__I__ZN7TwoWireC2EP3TwiPFvvE
                0x00080844       0x34 ./Libraries/Wire/Wire.cpp.o
 .text._ZN23Adafruit_PWMServoDriverC1Eh
                0x00080878        0x4 ./Libraries/I2C_PWM_Servo_Driver/Adafruit_PWMServoDriver.cpp.o
                0x00080878                Adafruit_PWMServoDriver::Adafruit_PWMServoDriver(unsigned char)
 .text._ZN23Adafruit_PWMServoDriver6write8Ehh
                0x0008087c       0x2c ./Libraries/I2C_PWM_Servo_Driver/Adafruit_PWMServoDriver.cpp.o
                0x0008087c                Adafruit_PWMServoDriver::write8(unsigned char, unsigned char)
 .text._ZN23Adafruit_PWMServoDriver5resetEv
                0x000808a8        0x8 ./Libraries/I2C_PWM_Servo_Driver/Adafruit_PWMServoDriver.cpp.o
                0x000808a8                Adafruit_PWMServoDriver::reset()
 .text._ZN23Adafruit_PWMServoDriver5read8Eh
                0x000808b0       0x34 ./Libraries/I2C_PWM_Servo_Driver/Adafruit_PWMServoDriver.cpp.o
                0x000808b0                Adafruit_PWMServoDriver::read8(unsigned char)
 .text._ZN23Adafruit_PWMServoDriver10setPWMFreqEf
                0x000808e4       0xbc ./Libraries/I2C_PWM_Servo_Driver/Adafruit_PWMServoDriver.cpp.o
                0x000808e4                Adafruit_PWMServoDriver::setPWMFreq(float)
 .text._ZN23Adafruit_PWMServoDriver5beginEv
                0x000809a0       0x18 ./Libraries/I2C_PWM_Servo_Driver/Adafruit_PWMServoDriver.cpp.o
                0x000809a0                Adafruit_PWMServoDriver::begin()
 .text._ZN8DueTimerC1Ei
                0x000809b8        0x4 ./Libraries/DueTimer/DueTimer.cpp.o
                0x000809b8                DueTimer::DueTimer(int)
 .text._ZN8DueTimer15attachInterruptEPFvvE
                0x000809bc       0x10 ./Libraries/DueTimer/DueTimer.cpp.o
                0x000809bc                DueTimer::attachInterrupt(void (*)())
 *fill*         0x000809cc        0x4 00
 .text._ZN8DueTimer9bestClockEdRm
                0x000809d0      0x1a0 ./Libraries/DueTimer/DueTimer.cpp.o
                0x000809d0                DueTimer::bestClock(double, unsigned long&)
 .text.TC8_Handler
                0x00080b70       0x1c ./Libraries/DueTimer/DueTimer.cpp.o
                0x00080b70                TC8_Handler
 .text.TC7_Handler
                0x00080b8c       0x1c ./Libraries/DueTimer/DueTimer.cpp.o
                0x00080b8c                TC7_Handler
 .text.TC6_Handler
                0x00080ba8       0x1c ./Libraries/DueTimer/DueTimer.cpp.o
                0x00080ba8                TC6_Handler
 .text.TC5_Handler
                0x00080bc4       0x1c ./Libraries/DueTimer/DueTimer.cpp.o
                0x00080bc4                TC5_Handler
 .text.TC4_Handler
                0x00080be0       0x1c ./Libraries/DueTimer/DueTimer.cpp.o
                0x00080be0                TC4_Handler
 .text.TC3_Handler
                0x00080bfc       0x1c ./Libraries/DueTimer/DueTimer.cpp.o
                0x00080bfc                TC3_Handler
 .text.TC2_Handler
                0x00080c18       0x1c ./Libraries/DueTimer/DueTimer.cpp.o
                0x00080c18                TC2_Handler
 .text.TC1_Handler
                0x00080c34       0x1c ./Libraries/DueTimer/DueTimer.cpp.o
                0x00080c34                TC1_Handler
 .text.TC0_Handler
                0x00080c50       0x1c ./Libraries/DueTimer/DueTimer.cpp.o
                0x00080c50                TC0_Handler
 .text._ZN8DueTimer12setFrequencyEd
                0x00080c6c       0x98 ./Libraries/DueTimer/DueTimer.cpp.o
                0x00080c6c                DueTimer::setFrequency(double)
 *fill*         0x00080d04        0x4 00
 .text._ZN8DueTimer9setPeriodEl
                0x00080d08       0x30 ./Libraries/DueTimer/DueTimer.cpp.o
                0x00080d08                DueTimer::setPeriod(long)
 .text._ZN8DueTimer4stopEv
                0x00080d38       0x44 ./Libraries/DueTimer/DueTimer.cpp.o
                0x00080d38                DueTimer::stop()
 .text._ZN8DueTimer15detachInterruptEv
                0x00080d7c       0x18 ./Libraries/DueTimer/DueTimer.cpp.o
                0x00080d7c                DueTimer::detachInterrupt()
 .text._ZN8DueTimer5startEl
                0x00080d94       0x74 ./Libraries/DueTimer/DueTimer.cpp.o
                0x00080d94                DueTimer::start(long)
 .text._GLOBAL__I__ZN8DueTimer6TimersE
                0x00080e08       0x80 ./Libraries/DueTimer/DueTimer.cpp.o
 .text._Z11serialEventv
                0x00080e88        0x2 C:/Users/jon_000/Git/ALFRED_CORE/Release/arduino.ar(variant.cpp.o)
                0x00080e88                serialEvent()
 .text._Z12serialEvent1v
                0x00080e8a        0x2 C:/Users/jon_000/Git/ALFRED_CORE/Release/arduino.ar(variant.cpp.o)
                0x00080e8a                serialEvent1()
 .text._Z12serialEvent2v
                0x00080e8c        0x2 C:/Users/jon_000/Git/ALFRED_CORE/Release/arduino.ar(variant.cpp.o)
                0x00080e8c                serialEvent2()
 .text._Z12serialEvent3v
                0x00080e8e        0x2 C:/Users/jon_000/Git/ALFRED_CORE/Release/arduino.ar(variant.cpp.o)
                0x00080e8e                serialEvent3()
 .text.init     0x00080e90      0x134 C:/Users/jon_000/Git/ALFRED_CORE/Release/arduino.ar(variant.cpp.o)
                0x00080e90                init
 .text._Z14serialEventRunv
                0x00080fc4       0x48 C:/Users/jon_000/Git/ALFRED_CORE/Release/arduino.ar(variant.cpp.o)
                0x00080fc4                serialEventRun()
 .text.USART3_Handler
                0x0008100c        0xc C:/Users/jon_000/Git/ALFRED_CORE/Release/arduino.ar(variant.cpp.o)
                0x0008100c                USART3_Handler
 .text.USART1_Handler
                0x00081018        0xc C:/Users/jon_000/Git/ALFRED_CORE/Release/arduino.ar(variant.cpp.o)
                0x00081018                USART1_Handler
 .text.USART0_Handler
                0x00081024        0xc C:/Users/jon_000/Git/ALFRED_CORE/Release/arduino.ar(variant.cpp.o)
                0x00081024                USART0_Handler
 .text.UART_Handler
                0x00081030        0xc C:/Users/jon_000/Git/ALFRED_CORE/Release/arduino.ar(variant.cpp.o)
                0x00081030                UART_Handler
 .text._GLOBAL__I_g_APinDescription
                0x0008103c       0x8c C:/Users/jon_000/Git/ALFRED_CORE/Release/arduino.ar(variant.cpp.o)
 .text._ZN5Print5writeEPKhj
                0x000810c8       0x2e C:/Users/jon_000/Git/ALFRED_CORE/Release/arduino.ar(Print.cpp.o)
                0x000810c8                Print::write(unsigned char const*, unsigned int)
 .text._ZN5Print5printEc
                0x000810f6        0xa C:/Users/jon_000/Git/ALFRED_CORE/Release/arduino.ar(Print.cpp.o)
                0x000810f6                Print::print(char)
 .text._ZN5Print7printlnEv
                0x00081100       0x18 C:/Users/jon_000/Git/ALFRED_CORE/Release/arduino.ar(Print.cpp.o)
                0x00081100                Print::println()
 .text._ZN5Print5writeEPKc
                0x00081118       0x20 C:/Users/jon_000/Git/ALFRED_CORE/Release/arduino.ar(Print.cpp.o)
                0x00081118                Print::write(char const*)
 .text._ZN5Print11printNumberEmh
                0x00081138       0x3e C:/Users/jon_000/Git/ALFRED_CORE/Release/arduino.ar(Print.cpp.o)
                0x00081138                Print::printNumber(unsigned long, unsigned char)
 .text._ZN5Print5printEmi
                0x00081176       0x1a C:/Users/jon_000/Git/ALFRED_CORE/Release/arduino.ar(Print.cpp.o)
                0x00081176                Print::print(unsigned long, int)
 .text._ZN5Print5printEhi
                0x00081190        0x4 C:/Users/jon_000/Git/ALFRED_CORE/Release/arduino.ar(Print.cpp.o)
                0x00081190                Print::print(unsigned char, int)
 .text._ZN5Print7printlnEhi
                0x00081194       0x14 C:/Users/jon_000/Git/ALFRED_CORE/Release/arduino.ar(Print.cpp.o)
                0x00081194                Print::println(unsigned char, int)
 .text._ZN5Print5printEli
                0x000811a8       0x42 C:/Users/jon_000/Git/ALFRED_CORE/Release/arduino.ar(Print.cpp.o)
                0x000811a8                Print::print(long, int)
 .text._ZN5Print5printEii
                0x000811ea        0x4 C:/Users/jon_000/Git/ALFRED_CORE/Release/arduino.ar(Print.cpp.o)
                0x000811ea                Print::print(int, int)
 .text._ZN5Print7printlnEii
                0x000811ee       0x14 C:/Users/jon_000/Git/ALFRED_CORE/Release/arduino.ar(Print.cpp.o)
                0x000811ee                Print::println(int, int)
 .text._ZN5Print5printEPKc
                0x00081202        0x4 C:/Users/jon_000/Git/ALFRED_CORE/Release/arduino.ar(Print.cpp.o)
                0x00081202                Print::print(char const*)
 *fill*         0x00081206        0x2 00
 .text._ZN5Print10printFloatEdh
                0x00081208      0x13c C:/Users/jon_000/Git/ALFRED_CORE/Release/arduino.ar(Print.cpp.o)
                0x00081208                Print::printFloat(double, unsigned char)
 .text._ZN5Print5printEdi
                0x00081344        0xa C:/Users/jon_000/Git/ALFRED_CORE/Release/arduino.ar(Print.cpp.o)
                0x00081344                Print::print(double, int)
 .text._ZN5Print7printlnEdi
                0x0008134e       0x18 C:/Users/jon_000/Git/ALFRED_CORE/Release/arduino.ar(Print.cpp.o)
                0x0008134e                Print::println(double, int)
 .text._ZN5Print7printlnEPKc
                0x00081366       0x14 C:/Users/jon_000/Git/ALFRED_CORE/Release/arduino.ar(Print.cpp.o)
                0x00081366                Print::println(char const*)
 .text._ZN10RingBuffer10store_charEh
                0x0008137a       0x16 C:/Users/jon_000/Git/ALFRED_CORE/Release/arduino.ar(RingBuffer.cpp.o)
                0x0008137a                RingBuffer::store_char(unsigned char)
 .text._ZN10RingBufferC1Ev
                0x00081390       0x16 C:/Users/jon_000/Git/ALFRED_CORE/Release/arduino.ar(RingBuffer.cpp.o)
                0x00081390                RingBuffer::RingBuffer()
 .text._ZN6Stream9timedReadEv
                0x000813a6       0x2a C:/Users/jon_000/Git/ALFRED_CORE/Release/arduino.ar(Stream.cpp.o)
                0x000813a6                Stream::timedRead()
 .text._ZN6Stream14readBytesUntilEcPcj
                0x000813d0       0x38 C:/Users/jon_000/Git/ALFRED_CORE/Release/arduino.ar(Stream.cpp.o)
                0x000813d0                Stream::readBytesUntil(char, char*, unsigned int)
 .text._ZN9UARTClasscvbEv
                0x00081408        0x4 C:/Users/jon_000/Git/ALFRED_CORE/Release/arduino.ar(UARTClass.cpp.o)
                0x00081408                UARTClass::operator bool()
 .text._ZN9UARTClassC1EP4Uart4IRQnmP10RingBuffer
                0x0008140c       0x24 C:/Users/jon_000/Git/ALFRED_CORE/Release/arduino.ar(UARTClass.cpp.o)
                0x0008140c                UARTClass::UARTClass(Uart*, IRQn, unsigned long, RingBuffer*)
 .text._ZN9UARTClass9availableEv
                0x00081430        0xe C:/Users/jon_000/Git/ALFRED_CORE/Release/arduino.ar(UARTClass.cpp.o)
                0x00081430                UARTClass::available()
 .text._ZN9UARTClass4peekEv
                0x0008143e       0x12 C:/Users/jon_000/Git/ALFRED_CORE/Release/arduino.ar(UARTClass.cpp.o)
                0x0008143e                UARTClass::peek()
 .text._ZN9UARTClass4readEv
                0x00081450       0x1c C:/Users/jon_000/Git/ALFRED_CORE/Release/arduino.ar(UARTClass.cpp.o)
                0x00081450                UARTClass::read()
 .text._ZN9UARTClass5flushEv
                0x0008146c        0xc C:/Users/jon_000/Git/ALFRED_CORE/Release/arduino.ar(UARTClass.cpp.o)
                0x0008146c                UARTClass::flush()
 .text._ZN9UARTClass5writeEh
                0x00081478       0x10 C:/Users/jon_000/Git/ALFRED_CORE/Release/arduino.ar(UARTClass.cpp.o)
                0x00081478                UARTClass::write(unsigned char)
 .text._ZN9UARTClass10IrqHandlerEv
                0x00081488       0x2a C:/Users/jon_000/Git/ALFRED_CORE/Release/arduino.ar(UARTClass.cpp.o)
                0x00081488                UARTClass::IrqHandler()
 *fill*         0x000814b2        0x2 00
 .text._ZN9UARTClass5beginEm
                0x000814b4       0x5c C:/Users/jon_000/Git/ALFRED_CORE/Release/arduino.ar(UARTClass.cpp.o)
                0x000814b4                UARTClass::begin(unsigned long)
 .text._ZN10USARTClasscvbEv
                0x00081510        0x4 C:/Users/jon_000/Git/ALFRED_CORE/Release/arduino.ar(USARTClass.cpp.o)
                0x00081510                USARTClass::operator bool()
 .text._ZN10USARTClassC1EP5Usart4IRQnmP10RingBuffer
                0x00081514       0x24 C:/Users/jon_000/Git/ALFRED_CORE/Release/arduino.ar(USARTClass.cpp.o)
                0x00081514                USARTClass::USARTClass(Usart*, IRQn, unsigned long, RingBuffer*)
 .text._ZN10USARTClass9availableEv
                0x00081538        0xe C:/Users/jon_000/Git/ALFRED_CORE/Release/arduino.ar(USARTClass.cpp.o)
                0x00081538                USARTClass::available()
 .text._ZN10USARTClass4peekEv
                0x00081546       0x12 C:/Users/jon_000/Git/ALFRED_CORE/Release/arduino.ar(USARTClass.cpp.o)
                0x00081546                USARTClass::peek()
 .text._ZN10USARTClass4readEv
                0x00081558       0x1c C:/Users/jon_000/Git/ALFRED_CORE/Release/arduino.ar(USARTClass.cpp.o)
                0x00081558                USARTClass::read()
 .text._ZN10USARTClass5flushEv
                0x00081574        0xc C:/Users/jon_000/Git/ALFRED_CORE/Release/arduino.ar(USARTClass.cpp.o)
                0x00081574                USARTClass::flush()
 .text._ZN10USARTClass5writeEh
                0x00081580       0x10 C:/Users/jon_000/Git/ALFRED_CORE/Release/arduino.ar(USARTClass.cpp.o)
                0x00081580                USARTClass::write(unsigned char)
 .text._ZN10USARTClass10IrqHandlerEv
                0x00081590       0x2a C:/Users/jon_000/Git/ALFRED_CORE/Release/arduino.ar(USARTClass.cpp.o)
                0x00081590                USARTClass::IrqHandler()
 *fill*         0x000815ba        0x2 00
 .text._ZN10USARTClass5beginEm
                0x000815bc       0x5c C:/Users/jon_000/Git/ALFRED_CORE/Release/arduino.ar(USARTClass.cpp.o)
                0x000815bc                USARTClass::begin(unsigned long)
 .text.millis   0x00081618        0x4 C:/Users/jon_000/Git/ALFRED_CORE/Release/arduino.ar(wiring.c.o)
                0x00081618                millis
 .text.delay    0x0008161c       0x1a C:/Users/jon_000/Git/ALFRED_CORE/Release/arduino.ar(wiring.c.o)
                0x0008161c                delay
 *fill*         0x00081636        0x2 00
 .text.analogOutputInit
                0x00081638       0x14 C:/Users/jon_000/Git/ALFRED_CORE/Release/arduino.ar(wiring_analog.c.o)
                0x00081638                analogOutputInit
 .text.digitalWrite
                0x0008164c       0x48 C:/Users/jon_000/Git/ALFRED_CORE/Release/arduino.ar(wiring_digital.c.o)
                0x0008164c                digitalWrite
 .text.pinMode  0x00081694       0x68 C:/Users/jon_000/Git/ALFRED_CORE/Release/arduino.ar(wiring_digital.c.o)
                0x00081694                pinMode
 .text.__empty  0x000816fc        0x2 C:/Users/jon_000/Git/ALFRED_CORE/Release/arduino.ar(hooks.c.o)
                0x000816fc                yield
 .text.__false  0x000816fe        0x4 C:/Users/jon_000/Git/ALFRED_CORE/Release/arduino.ar(hooks.c.o)
                0x000816fe                sysTickHook
 .text.__halt   0x00081702        0x2 C:/Users/jon_000/Git/ALFRED_CORE/Release/arduino.ar(hooks.c.o)
                0x00081702                svcHook
                0x00081702                pendSVHook
 .text.PIO_DisableInterrupt
                0x00081704        0x4 C:/Arduino/hardware/arduino/sam/variants/arduino_due_x/libsam_sam3x8e_gcc_rel.a(pio.o)
                0x00081704                PIO_DisableInterrupt
 .text.PIO_PullUp
                0x00081708        0xa C:/Arduino/hardware/arduino/sam/variants/arduino_due_x/libsam_sam3x8e_gcc_rel.a(pio.o)
                0x00081708                PIO_PullUp
 .text.PIO_SetPeripheral
                0x00081712       0x2a C:/Arduino/hardware/arduino/sam/variants/arduino_due_x/libsam_sam3x8e_gcc_rel.a(pio.o)
                0x00081712                PIO_SetPeripheral
 .text.PIO_SetInput
                0x0008173c       0x40 C:/Arduino/hardware/arduino/sam/variants/arduino_due_x/libsam_sam3x8e_gcc_rel.a(pio.o)
                0x0008173c                PIO_SetInput
 .text.PIO_SetOutput
                0x0008177c       0x38 C:/Arduino/hardware/arduino/sam/variants/arduino_due_x/libsam_sam3x8e_gcc_rel.a(pio.o)
                0x0008177c                PIO_SetOutput
 .text.PIO_Configure
                0x000817b4       0x74 C:/Arduino/hardware/arduino/sam/variants/arduino_due_x/libsam_sam3x8e_gcc_rel.a(pio.o)
                0x000817b4                PIO_Configure
 .text.PIO_GetOutputDataStatus
                0x00081828       0x16 C:/Arduino/hardware/arduino/sam/variants/arduino_due_x/libsam_sam3x8e_gcc_rel.a(pio.o)
                0x00081828                PIO_GetOutputDataStatus
 *fill*         0x0008183e        0x2 00
 .text.pmc_enable_upll_clock
                0x00081840       0x18 C:/Arduino/hardware/arduino/sam/variants/arduino_due_x/libsam_sam3x8e_gcc_rel.a(pmc.o)
                0x00081840                pmc_enable_upll_clock
 .text.pmc_enable_periph_clk
                0x00081858       0x48 C:/Arduino/hardware/arduino/sam/variants/arduino_due_x/libsam_sam3x8e_gcc_rel.a(pmc.o)
                0x00081858                pmc_enable_periph_clk
 .text.pmc_disable_periph_clk
                0x000818a0       0x48 C:/Arduino/hardware/arduino/sam/variants/arduino_due_x/libsam_sam3x8e_gcc_rel.a(pmc.o)
                0x000818a0                pmc_disable_periph_clk
 .text.pmc_switch_udpck_to_upllck
                0x000818e8       0x14 C:/Arduino/hardware/arduino/sam/variants/arduino_due_x/libsam_sam3x8e_gcc_rel.a(pmc.o)
                0x000818e8                pmc_switch_udpck_to_upllck
 .text.pmc_enable_udpck
                0x000818fc        0xc C:/Arduino/hardware/arduino/sam/variants/arduino_due_x/libsam_sam3x8e_gcc_rel.a(pmc.o)
                0x000818fc                pmc_enable_udpck
 .text.pmc_set_writeprotect
                0x00081908       0x1c C:/Arduino/hardware/arduino/sam/variants/arduino_due_x/libsam_sam3x8e_gcc_rel.a(pmc.o)
                0x00081908                pmc_set_writeprotect
 .text.TC_Configure
                0x00081924       0x38 C:/Arduino/hardware/arduino/sam/variants/arduino_due_x/libsam_sam3x8e_gcc_rel.a(tc.o)
                0x00081924                TC_Configure
 .text.TC_Start
                0x0008195c       0x2c C:/Arduino/hardware/arduino/sam/variants/arduino_due_x/libsam_sam3x8e_gcc_rel.a(tc.o)
                0x0008195c                TC_Start
 .text.TC_Stop  0x00081988       0x2c C:/Arduino/hardware/arduino/sam/variants/arduino_due_x/libsam_sam3x8e_gcc_rel.a(tc.o)
                0x00081988                TC_Stop
 .text.TC_GetStatus
                0x000819b4        0x8 C:/Arduino/hardware/arduino/sam/variants/arduino_due_x/libsam_sam3x8e_gcc_rel.a(tc.o)
                0x000819b4                TC_GetStatus
 .text.TC_SetRC
                0x000819bc        0x8 C:/Arduino/hardware/arduino/sam/variants/arduino_due_x/libsam_sam3x8e_gcc_rel.a(tc.o)
                0x000819bc                TC_SetRC
 .text.TimeTick_Increment
                0x000819c4       0x10 C:/Arduino/hardware/arduino/sam/variants/arduino_due_x/libsam_sam3x8e_gcc_rel.a(timetick.o)
                0x000819c4                TimeTick_Increment
 .text.GetTickCount
                0x000819d4        0xc C:/Arduino/hardware/arduino/sam/variants/arduino_due_x/libsam_sam3x8e_gcc_rel.a(timetick.o)
                0x000819d4                GetTickCount
 .text.TWI_ConfigureMaster
                0x000819e0       0x70 C:/Arduino/hardware/arduino/sam/variants/arduino_due_x/libsam_sam3x8e_gcc_rel.a(twi.o)
                0x000819e0                TWI_ConfigureMaster
 .text.TWI_Stop
                0x00081a50       0x28 C:/Arduino/hardware/arduino/sam/variants/arduino_due_x/libsam_sam3x8e_gcc_rel.a(twi.o)
                0x00081a50                TWI_Stop
 .text.TWI_StartRead
                0x00081a78       0x74 C:/Arduino/hardware/arduino/sam/variants/arduino_due_x/libsam_sam3x8e_gcc_rel.a(twi.o)
                0x00081a78                TWI_StartRead
 .text.TWI_ReadByte
                0x00081aec       0x28 C:/Arduino/hardware/arduino/sam/variants/arduino_due_x/libsam_sam3x8e_gcc_rel.a(twi.o)
                0x00081aec                TWI_ReadByte
 .text.TWI_WriteByte
                0x00081b14       0x24 C:/Arduino/hardware/arduino/sam/variants/arduino_due_x/libsam_sam3x8e_gcc_rel.a(twi.o)
                0x00081b14                TWI_WriteByte
 .text.TWI_StartWrite
                0x00081b38       0x80 C:/Arduino/hardware/arduino/sam/variants/arduino_due_x/libsam_sam3x8e_gcc_rel.a(twi.o)
                0x00081b38                TWI_StartWrite
 .text.TWI_ByteReceived
                0x00081bb8        0x8 C:/Arduino/hardware/arduino/sam/variants/arduino_due_x/libsam_sam3x8e_gcc_rel.a(twi.o)
                0x00081bb8                TWI_ByteReceived
 .text.TWI_ByteSent
                0x00081bc0        0x8 C:/Arduino/hardware/arduino/sam/variants/arduino_due_x/libsam_sam3x8e_gcc_rel.a(twi.o)
                0x00081bc0                TWI_ByteSent
 .text.TWI_TransferComplete
                0x00081bc8        0x8 C:/Arduino/hardware/arduino/sam/variants/arduino_due_x/libsam_sam3x8e_gcc_rel.a(twi.o)
                0x00081bc8                TWI_TransferComplete
 .text.TWI_EnableIt
                0x00081bd0       0x40 C:/Arduino/hardware/arduino/sam/variants/arduino_due_x/libsam_sam3x8e_gcc_rel.a(twi.o)
                0x00081bd0                TWI_EnableIt
 .text.TWI_DisableIt
                0x00081c10       0x40 C:/Arduino/hardware/arduino/sam/variants/arduino_due_x/libsam_sam3x8e_gcc_rel.a(twi.o)
                0x00081c10                TWI_DisableIt
 .text.TWI_GetStatus
                0x00081c50       0x28 C:/Arduino/hardware/arduino/sam/variants/arduino_due_x/libsam_sam3x8e_gcc_rel.a(twi.o)
                0x00081c50                TWI_GetStatus
 .text.TWI_SendSTOPCondition
                0x00081c78       0x2c C:/Arduino/hardware/arduino/sam/variants/arduino_due_x/libsam_sam3x8e_gcc_rel.a(twi.o)
                0x00081c78                TWI_SendSTOPCondition
 .text.WDT_Disable
                0x00081ca4        0x8 C:/Arduino/hardware/arduino/sam/variants/arduino_due_x/libsam_sam3x8e_gcc_rel.a(wdt.o)
                0x00081ca4                WDT_Disable
 .text.SystemInit
                0x00081cac       0x9c C:/Arduino/hardware/arduino/sam/variants/arduino_due_x/libsam_sam3x8e_gcc_rel.a(system_sam3xa.o)
                0x00081cac                SystemInit
 .text.Reset_Handler
                0x00081d48       0x70 C:/Arduino/hardware/arduino/sam/variants/arduino_due_x/libsam_sam3x8e_gcc_rel.a(startup_sam3xa.o)
                0x00081d48                Reset_Handler
 .text.adc_init
                0x00081db8       0xa0 C:/Arduino/hardware/arduino/sam/variants/arduino_due_x/libsam_sam3x8e_gcc_rel.a(adc.o)
                0x00081db8                adc_init
 .text.adc_configure_trigger
                0x00081e58       0x10 C:/Arduino/hardware/arduino/sam/variants/arduino_due_x/libsam_sam3x8e_gcc_rel.a(adc.o)
                0x00081e58                adc_configure_trigger
 .text.adc_configure_timing
                0x00081e68       0x1a C:/Arduino/hardware/arduino/sam/variants/arduino_due_x/libsam_sam3x8e_gcc_rel.a(adc.o)
                0x00081e68                adc_configure_timing
 .text.adc_disable_all_channel
                0x00081e82        0x8 C:/Arduino/hardware/arduino/sam/variants/arduino_due_x/libsam_sam3x8e_gcc_rel.a(adc.o)
                0x00081e82                adc_disable_all_channel
 .text.adc_disable_interrupt
                0x00081e8a        0x4 C:/Arduino/hardware/arduino/sam/variants/arduino_due_x/libsam_sam3x8e_gcc_rel.a(adc.o)
                0x00081e8a                adc_disable_interrupt
 *fill*         0x00081e8e        0x2 00
 .text.UOTGHS_Handler
                0x00081e90       0x10 C:/Arduino/hardware/arduino/sam/variants/arduino_due_x/libsam_sam3x8e_gcc_rel.a(uotghs.o)
                0x00081e90                UOTGHS_Handler
 .text.PIOA_Handler
                0x00081ea0       0x2c C:/Users/jon_000/Git/ALFRED_CORE/Release/arduino.ar(WInterrupts.c.o)
                0x00081ea0                PIOA_Handler
 .text.PIOB_Handler
                0x00081ecc       0x2c C:/Users/jon_000/Git/ALFRED_CORE/Release/arduino.ar(WInterrupts.c.o)
                0x00081ecc                PIOB_Handler
 .text.PIOC_Handler
                0x00081ef8       0x2c C:/Users/jon_000/Git/ALFRED_CORE/Release/arduino.ar(WInterrupts.c.o)
                0x00081ef8                PIOC_Handler
 .text.PIOD_Handler
                0x00081f24       0x2c C:/Users/jon_000/Git/ALFRED_CORE/Release/arduino.ar(WInterrupts.c.o)
                0x00081f24                PIOD_Handler
 .text.__halt   0x00081f50        0x2 C:/Users/jon_000/Git/ALFRED_CORE/Release/arduino.ar(cortex_handlers.c.o)
                0x00081f50                DACC_Handler
                0x00081f50                DebugMon_Handler
                0x00081f50                DMAC_Handler
                0x00081f50                TRNG_Handler
                0x00081f50                HardFault_Handler
                0x00081f50                NMI_Handler
                0x00081f50                ADC_Handler
                0x00081f50                SMC_Handler
                0x00081f50                RTT_Handler
                0x00081f50                EFC1_Handler
                0x00081f50                RTC_Handler
                0x00081f50                UsageFault_Handler
                0x00081f50                WDT_Handler
                0x00081f50                CAN0_Handler
                0x00081f50                HSMCI_Handler
                0x00081f50                SSC_Handler
                0x00081f50                EFC0_Handler
                0x00081f50                PMC_Handler
                0x00081f50                PWM_Handler
                0x00081f50                CAN1_Handler
                0x00081f50                MemManage_Handler
                0x00081f50                SUPC_Handler
                0x00081f50                USART2_Handler
                0x00081f50                EMAC_Handler
                0x00081f50                BusFault_Handler
                0x00081f50                RSTC_Handler
                0x00081f50                SPI0_Handler
 .text.SysTick_Handler
                0x00081f52       0x16 C:/Users/jon_000/Git/ALFRED_CORE/Release/arduino.ar(cortex_handlers.c.o)
                0x00081f52                SysTick_Handler
 .text.PendSV_Handler
                0x00081f68        0x4 C:/Users/jon_000/Git/ALFRED_CORE/Release/arduino.ar(cortex_handlers.c.o)
                0x00081f68                PendSV_Handler
 .text.SVC_Handler
                0x00081f6c        0x4 C:/Users/jon_000/Git/ALFRED_CORE/Release/arduino.ar(cortex_handlers.c.o)
                0x00081f6c                SVC_Handler
 .text.main     0x00081f70       0x30 C:/Users/jon_000/Git/ALFRED_CORE/Release/arduino.ar(main.cpp.o)
                0x00081f70                main
 .text._Z16USBD_InitControli
                0x00081fa0       0x14 C:/Users/jon_000/Git/ALFRED_CORE/Release/arduino.ar(USBCore.cpp.o)
                0x00081fa0                USBD_InitControl(int)
 .text._ZL11USB_SendZlpv
                0x00081fb4       0x24 C:/Users/jon_000/Git/ALFRED_CORE/Release/arduino.ar(USBCore.cpp.o)
 .text._ZN10USBDevice_6attachEv
                0x00081fd8       0x20 C:/Users/jon_000/Git/ALFRED_CORE/Release/arduino.ar(USBCore.cpp.o)
                0x00081fd8                USBDevice_::attach()
 .text._ZN10USBDevice_C1Ev
                0x00081ff8       0x24 C:/Users/jon_000/Git/ALFRED_CORE/Release/arduino.ar(USBCore.cpp.o)
                0x00081ff8                USBDevice_::USBDevice_()
 .text._Z14USBD_Availablem
                0x0008201c       0x2c C:/Users/jon_000/Git/ALFRED_CORE/Release/arduino.ar(USBCore.cpp.o)
                0x0008201c                USBD_Available(unsigned long)
 .text._Z10USBD_Flushm
                0x00082048       0x16 C:/Users/jon_000/Git/ALFRED_CORE/Release/arduino.ar(USBCore.cpp.o)
                0x00082048                USBD_Flush(unsigned long)
 .text._Z24USBD_SendOtherInterfacesv
                0x0008205e       0x1c C:/Users/jon_000/Git/ALFRED_CORE/Release/arduino.ar(USBCore.cpp.o)
                0x0008205e                USBD_SendOtherInterfaces()
 .text._Z19USBD_SendInterfacesv
                0x0008207a       0x1c C:/Users/jon_000/Git/ALFRED_CORE/Release/arduino.ar(USBCore.cpp.o)
                0x0008207a                USBD_SendInterfaces()
 .text._Z26USBD_ClassInterfaceRequestR5Setup
                0x00082096       0x14 C:/Users/jon_000/Git/ALFRED_CORE/Release/arduino.ar(USBCore.cpp.o)
                0x00082096                USBD_ClassInterfaceRequest(Setup&)
 .text._Z16USBD_RecvControlPvm
                0x000820aa       0x1c C:/Users/jon_000/Git/ALFRED_CORE/Release/arduino.ar(USBCore.cpp.o)
                0x000820aa                USBD_RecvControl(void*, unsigned long)
 *fill*         0x000820c6        0x2 00
 .text._Z16USBD_SendControlhPKvm
                0x000820c8       0x40 C:/Users/jon_000/Git/ALFRED_CORE/Release/arduino.ar(USBCore.cpp.o)
                0x000820c8                USBD_SendControl(unsigned char, void const*, unsigned long)
 .text._ZL24USB_SendStringDescriptorPKhi
                0x00082108       0x42 C:/Users/jon_000/Git/ALFRED_CORE/Release/arduino.ar(USBCore.cpp.o)
 *fill*         0x0008214a        0x2 00
 .text._ZL7USB_ISRv
                0x0008214c      0x438 C:/Users/jon_000/Git/ALFRED_CORE/Release/arduino.ar(USBCore.cpp.o)
 .text._Z9USBD_SendmPKvm
                0x00082584       0x4c C:/Users/jon_000/Git/ALFRED_CORE/Release/arduino.ar(USBCore.cpp.o)
                0x00082584                USBD_Send(unsigned long, void const*, unsigned long)
 .text._Z9USBD_RecvmPvm
                0x000825d0       0x7c C:/Users/jon_000/Git/ALFRED_CORE/Release/arduino.ar(USBCore.cpp.o)
                0x000825d0                USBD_Recv(unsigned long, void*, unsigned long)
 .text._Z9USBD_Recvm
                0x0008264c       0x1e C:/Users/jon_000/Git/ALFRED_CORE/Release/arduino.ar(USBCore.cpp.o)
                0x0008264c                USBD_Recv(unsigned long)
 *fill*         0x0008266a        0x2 00
 .text._GLOBAL__I_TxLEDPulse
                0x0008266c        0xc C:/Users/jon_000/Git/ALFRED_CORE/Release/arduino.ar(USBCore.cpp.o)
 .text.initiateReset
                0x00082678        0xc C:/Users/jon_000/Git/ALFRED_CORE/Release/arduino.ar(Reset.cpp.o)
                0x00082678                initiateReset
 .text.cancelReset
                0x00082684       0x10 C:/Users/jon_000/Git/ALFRED_CORE/Release/arduino.ar(Reset.cpp.o)
                0x00082684                cancelReset
 .text.tickReset
                0x00082694       0x20 C:/Users/jon_000/Git/ALFRED_CORE/Release/arduino.ar(Reset.cpp.o)
                0x00082694                tickReset
 .text._ZN7Serial_9availableEv
                0x000826b4       0x18 C:/Users/jon_000/Git/ALFRED_CORE/Release/arduino.ar(CDC.cpp.o)
                0x000826b4                Serial_::available()
 .text._ZN7Serial_4peekEv
                0x000826cc       0x20 C:/Users/jon_000/Git/ALFRED_CORE/Release/arduino.ar(CDC.cpp.o)
                0x000826cc                Serial_::peek()
 .text._ZN7Serial_5writeEh
                0x000826ec       0x14 C:/Users/jon_000/Git/ALFRED_CORE/Release/arduino.ar(CDC.cpp.o)
                0x000826ec                Serial_::write(unsigned char)
 .text._ZN7Serial_5writeEPKhj
                0x00082700       0x28 C:/Users/jon_000/Git/ALFRED_CORE/Release/arduino.ar(CDC.cpp.o)
                0x00082700                Serial_::write(unsigned char const*, unsigned int)
 .text._ZN7Serial_5flushEv
                0x00082728        0x6 C:/Users/jon_000/Git/ALFRED_CORE/Release/arduino.ar(CDC.cpp.o)
                0x00082728                Serial_::flush()
 *fill*         0x0008272e        0x2 00
 .text._ZN7Serial_4readEv
                0x00082730       0x44 C:/Users/jon_000/Git/ALFRED_CORE/Release/arduino.ar(CDC.cpp.o)
                0x00082730                Serial_::read()
 .text._ZN7Serial_6acceptEv
                0x00082774       0x6c C:/Users/jon_000/Git/ALFRED_CORE/Release/arduino.ar(CDC.cpp.o)
                0x00082774                Serial_::accept()
 .text._Z21CDC_GetOtherInterfacePh
                0x000827e0       0x14 C:/Users/jon_000/Git/ALFRED_CORE/Release/arduino.ar(CDC.cpp.o)
                0x000827e0                CDC_GetOtherInterface(unsigned char*)
 .text._Z16CDC_GetInterfacePh
                0x000827f4       0x14 C:/Users/jon_000/Git/ALFRED_CORE/Release/arduino.ar(CDC.cpp.o)
                0x000827f4                CDC_GetInterface(unsigned char*)
 .text._Z9CDC_SetupR5Setup
                0x00082808       0x60 C:/Users/jon_000/Git/ALFRED_CORE/Release/arduino.ar(CDC.cpp.o)
                0x00082808                CDC_Setup(Setup&)
 .text._GLOBAL__I_cdc_rx_buffer
                0x00082868       0x1c C:/Users/jon_000/Git/ALFRED_CORE/Release/arduino.ar(CDC.cpp.o)
 .text._Z9HID_SetupR5Setup
                0x00082884       0x44 C:/Users/jon_000/Git/ALFRED_CORE/Release/arduino.ar(HID.cpp.o)
                0x00082884                HID_Setup(Setup&)
 .text._ZN6Mouse_C1Ev
                0x000828c8        0x6 C:/Users/jon_000/Git/ALFRED_CORE/Release/arduino.ar(HID.cpp.o)
                0x000828c8                Mouse_::Mouse_()
 *fill*         0x000828ce        0x2 00
 .text._ZN9Keyboard_C1Ev
                0x000828d0       0x10 C:/Users/jon_000/Git/ALFRED_CORE/Release/arduino.ar(HID.cpp.o)
                0x000828d0                Keyboard_::Keyboard_()
 .text._ZN9Keyboard_5writeEh
                0x000828e0       0x1c C:/Users/jon_000/Git/ALFRED_CORE/Release/arduino.ar(HID.cpp.o)
                0x000828e0                Keyboard_::write(unsigned char)
 .text._Z14HID_SendReporthPKvm
                0x000828fc       0x2c C:/Users/jon_000/Git/ALFRED_CORE/Release/arduino.ar(HID.cpp.o)
                0x000828fc                HID_SendReport(unsigned char, void const*, unsigned long)
 .text._ZN9Keyboard_10sendReportEP9KeyReport
                0x00082928        0x8 C:/Users/jon_000/Git/ALFRED_CORE/Release/arduino.ar(HID.cpp.o)
                0x00082928                Keyboard_::sendReport(KeyReport*)
 .text._ZN9Keyboard_10releaseAllEv
                0x00082930       0x18 C:/Users/jon_000/Git/ALFRED_CORE/Release/arduino.ar(HID.cpp.o)
                0x00082930                Keyboard_::releaseAll()
 .text._ZN9Keyboard_7releaseEh
                0x00082948       0x74 C:/Users/jon_000/Git/ALFRED_CORE/Release/arduino.ar(HID.cpp.o)
                0x00082948                Keyboard_::release(unsigned char)
 .text._ZN9Keyboard_5pressEh
                0x000829bc       0x9c C:/Users/jon_000/Git/ALFRED_CORE/Release/arduino.ar(HID.cpp.o)
                0x000829bc                Keyboard_::press(unsigned char)
 .text._Z17HID_GetDescriptori
                0x00082a58       0x10 C:/Users/jon_000/Git/ALFRED_CORE/Release/arduino.ar(HID.cpp.o)
                0x00082a58                HID_GetDescriptor(int)
 .text._Z16HID_GetInterfacePh
                0x00082a68       0x14 C:/Users/jon_000/Git/ALFRED_CORE/Release/arduino.ar(HID.cpp.o)
                0x00082a68                HID_GetInterface(unsigned char*)
 .text._GLOBAL__I_Mouse
                0x00082a7c       0x1c C:/Users/jon_000/Git/ALFRED_CORE/Release/arduino.ar(HID.cpp.o)
 .text.UDD_SetStack
                0x00082a98        0xc C:/Arduino/hardware/arduino/sam/variants/arduino_due_x/libsam_sam3x8e_gcc_rel.a(uotghs_device.o)
                0x00082a98                UDD_SetStack
 .text.UDD_Init
                0x00082aa4       0xd0 C:/Arduino/hardware/arduino/sam/variants/arduino_due_x/libsam_sam3x8e_gcc_rel.a(uotghs_device.o)
                0x00082aa4                UDD_Init
 .text.UDD_Attach
                0x00082b74       0x4c C:/Arduino/hardware/arduino/sam/variants/arduino_due_x/libsam_sam3x8e_gcc_rel.a(uotghs_device.o)
                0x00082b74                UDD_Attach
 .text.UDD_InitEP
                0x00082bc0       0x30 C:/Arduino/hardware/arduino/sam/variants/arduino_due_x/libsam_sam3x8e_gcc_rel.a(uotghs_device.o)
                0x00082bc0                UDD_InitEP
 .text.UDD_InitEndpoints
                0x00082bf0       0x3c C:/Arduino/hardware/arduino/sam/variants/arduino_due_x/libsam_sam3x8e_gcc_rel.a(uotghs_device.o)
                0x00082bf0                UDD_InitEndpoints
 .text.UDD_WaitIN
                0x00082c2c       0x14 C:/Arduino/hardware/arduino/sam/variants/arduino_due_x/libsam_sam3x8e_gcc_rel.a(uotghs_device.o)
                0x00082c2c                UDD_WaitIN
 .text.UDD_WaitOUT
                0x00082c40       0x14 C:/Arduino/hardware/arduino/sam/variants/arduino_due_x/libsam_sam3x8e_gcc_rel.a(uotghs_device.o)
                0x00082c40                UDD_WaitOUT
 .text.UDD_ClearIN
                0x00082c54       0x18 C:/Arduino/hardware/arduino/sam/variants/arduino_due_x/libsam_sam3x8e_gcc_rel.a(uotghs_device.o)
                0x00082c54                UDD_ClearIN
 .text.UDD_ClearOUT
                0x00082c6c       0x18 C:/Arduino/hardware/arduino/sam/variants/arduino_due_x/libsam_sam3x8e_gcc_rel.a(uotghs_device.o)
                0x00082c6c                UDD_ClearOUT
 .text.UDD_ReceivedSetupInt
                0x00082c84       0x10 C:/Arduino/hardware/arduino/sam/variants/arduino_due_x/libsam_sam3x8e_gcc_rel.a(uotghs_device.o)
                0x00082c84                UDD_ReceivedSetupInt
 .text.UDD_ClearSetupInt
                0x00082c94       0x10 C:/Arduino/hardware/arduino/sam/variants/arduino_due_x/libsam_sam3x8e_gcc_rel.a(uotghs_device.o)
                0x00082c94                UDD_ClearSetupInt
 .text.UDD_Send
                0x00082ca4       0x90 C:/Arduino/hardware/arduino/sam/variants/arduino_due_x/libsam_sam3x8e_gcc_rel.a(uotghs_device.o)
                0x00082ca4                UDD_Send
 .text.UDD_Send8
                0x00082d34       0x28 C:/Arduino/hardware/arduino/sam/variants/arduino_due_x/libsam_sam3x8e_gcc_rel.a(uotghs_device.o)
                0x00082d34                UDD_Send8
 .text.UDD_Recv8
                0x00082d5c       0x28 C:/Arduino/hardware/arduino/sam/variants/arduino_due_x/libsam_sam3x8e_gcc_rel.a(uotghs_device.o)
                0x00082d5c                UDD_Recv8
 .text.UDD_Recv
                0x00082d84       0x34 C:/Arduino/hardware/arduino/sam/variants/arduino_due_x/libsam_sam3x8e_gcc_rel.a(uotghs_device.o)
                0x00082d84                UDD_Recv
 .text.UDD_Stall
                0x00082db8       0x14 C:/Arduino/hardware/arduino/sam/variants/arduino_due_x/libsam_sam3x8e_gcc_rel.a(uotghs_device.o)
                0x00082db8                UDD_Stall
 .text.UDD_FifoByteCount
                0x00082dcc       0x1c C:/Arduino/hardware/arduino/sam/variants/arduino_due_x/libsam_sam3x8e_gcc_rel.a(uotghs_device.o)
                0x00082dcc                UDD_FifoByteCount
 .text.UDD_ReleaseRX
                0x00082de8       0x2c C:/Arduino/hardware/arduino/sam/variants/arduino_due_x/libsam_sam3x8e_gcc_rel.a(uotghs_device.o)
                0x00082de8                UDD_ReleaseRX
 .text.UDD_ReleaseTX
                0x00082e14       0x2c C:/Arduino/hardware/arduino/sam/variants/arduino_due_x/libsam_sam3x8e_gcc_rel.a(uotghs_device.o)
                0x00082e14                UDD_ReleaseTX
 .text.UDD_SetAddress
                0x00082e40       0x20 C:/Arduino/hardware/arduino/sam/variants/arduino_due_x/libsam_sam3x8e_gcc_rel.a(uotghs_device.o)
                0x00082e40                UDD_SetAddress
 .text          0x00082e60      0x128 c:/arduino/hardware/tools/g++_arm_none_eabi/bin/../lib/gcc/arm-none-eabi/4.4.1/../../../../arm-none-eabi/lib/thumb2\libm.a(lib_a-s_floor.o)
                0x00082e60                floor
 .text          0x00082f88       0x24 c:/arduino/hardware/tools/g++_arm_none_eabi/bin/../lib/gcc/arm-none-eabi/4.4.1/../../../../arm-none-eabi/lib/thumb2\libm.a(lib_a-s_isinfd.o)
                0x00082f88                __isinfd
 .text          0x00082fac       0x1c c:/arduino/hardware/tools/g++_arm_none_eabi/bin/../lib/gcc/arm-none-eabi/4.4.1/../../../../arm-none-eabi/lib/thumb2\libm.a(lib_a-s_isnand.o)
                0x00082fac                __isnand
 .text          0x00082fc8      0x370 c:/arduino/hardware/tools/g++_arm_none_eabi/bin/../lib/gcc/arm-none-eabi/4.4.1/thumb2\libgcc.a(_arm_addsubdf3.o)
                0x00082fc8                __aeabi_drsub
                0x00082fd0                __aeabi_dsub
                0x00082fd0                __subdf3
                0x00082fd4                __aeabi_dadd
                0x00082fd4                __adddf3
                0x0008324c                __floatunsidf
                0x0008324c                __aeabi_ui2d
                0x0008326c                __floatsidf
                0x0008326c                __aeabi_i2d
                0x00083290                __aeabi_f2d
                0x00083290                __extendsfdf2
                0x000832cc                __floatundidf
                0x000832cc                __aeabi_ul2d
                0x000832dc                __floatdidf
                0x000832dc                __aeabi_l2d
 .text          0x00083338      0x424 c:/arduino/hardware/tools/g++_arm_none_eabi/bin/../lib/gcc/arm-none-eabi/4.4.1/thumb2\libgcc.a(_arm_muldivdf3.o)
                0x00083338                __aeabi_dmul
                0x00083338                __muldf3
                0x0008358c                __divdf3
                0x0008358c                __aeabi_ddiv
 .text          0x0008375c      0x110 c:/arduino/hardware/tools/g++_arm_none_eabi/bin/../lib/gcc/arm-none-eabi/4.4.1/thumb2\libgcc.a(_arm_cmpdf2.o)
                0x0008375c                __gtdf2
                0x0008375c                __gedf2
                0x00083764                __ltdf2
                0x00083764                __ledf2
                0x0008376c                __nedf2
                0x0008376c                __eqdf2
                0x0008376c                __cmpdf2
                0x000837e8                __aeabi_cdrcmple
                0x000837f8                __aeabi_cdcmpeq
                0x000837f8                __aeabi_cdcmple
                0x00083808                __aeabi_dcmpeq
                0x0008381c                __aeabi_dcmplt
                0x00083830                __aeabi_dcmple
                0x00083844                __aeabi_dcmpge
                0x00083858                __aeabi_dcmpgt
 .text          0x0008386c       0x50 c:/arduino/hardware/tools/g++_arm_none_eabi/bin/../lib/gcc/arm-none-eabi/4.4.1/thumb2\libgcc.a(_arm_fixdfsi.o)
                0x0008386c                __aeabi_d2iz
                0x0008386c                __fixdfsi
 .text          0x000838bc       0x40 c:/arduino/hardware/tools/g++_arm_none_eabi/bin/../lib/gcc/arm-none-eabi/4.4.1/thumb2\libgcc.a(_arm_fixunsdfsi.o)
                0x000838bc                __aeabi_d2uiz
                0x000838bc                __fixunsdfsi
 .text          0x000838fc       0xa0 c:/arduino/hardware/tools/g++_arm_none_eabi/bin/../lib/gcc/arm-none-eabi/4.4.1/thumb2\libgcc.a(_arm_truncdfsf2.o)
                0x000838fc                __truncdfsf2
                0x000838fc                __aeabi_d2f
 .text          0x0008399c      0x21c c:/arduino/hardware/tools/g++_arm_none_eabi/bin/../lib/gcc/arm-none-eabi/4.4.1/thumb2\libgcc.a(_arm_addsubsf3.o)
                0x0008399c                __aeabi_frsub
                0x000839a4                __subsf3
                0x000839a4                __aeabi_fsub
                0x000839a8                __aeabi_fadd
                0x000839a8                __addsf3
                0x00083b08                __aeabi_ui2f
                0x00083b08                __floatunsisf
                0x00083b10                __aeabi_i2f
                0x00083b10                __floatsisf
                0x00083b2c                __aeabi_ul2f
                0x00083b2c                __floatundisf
                0x00083b3c                __aeabi_l2f
                0x00083b3c                __floatdisf
 .text          0x00083bb8      0x2a0 c:/arduino/hardware/tools/g++_arm_none_eabi/bin/../lib/gcc/arm-none-eabi/4.4.1/thumb2\libgcc.a(_arm_muldivsf3.o)
                0x00083bb8                __mulsf3
                0x00083bb8                __aeabi_fmul
                0x00083d20                __aeabi_fdiv
                0x00083d20                __divsf3
 .text          0x00083e58       0xec c:/arduino/hardware/tools/g++_arm_none_eabi/bin/../lib/gcc/arm-none-eabi/4.4.1/thumb2\libgcc.a(_arm_cmpsf2.o)
                0x00083e58                __gesf2
                0x00083e58                __gtsf2
                0x00083e60                __lesf2
                0x00083e60                __ltsf2
                0x00083e68                __nesf2
                0x00083e68                __eqsf2
                0x00083e68                __cmpsf2
                0x00083ec8                __aeabi_cfrcmple
                0x00083ed0                __aeabi_cfcmpeq
                0x00083ed0                __aeabi_cfcmple
                0x00083ee0                __aeabi_fcmpeq
                0x00083ef4                __aeabi_fcmplt
                0x00083f08                __aeabi_fcmple
                0x00083f1c                __aeabi_fcmpge
                0x00083f30                __aeabi_fcmpgt
 .text          0x00083f44       0x54 c:/arduino/hardware/tools/g++_arm_none_eabi/bin/../lib/gcc/arm-none-eabi/4.4.1/../../../../arm-none-eabi/lib/thumb2\libc.a(lib_a-assert.o)
                0x00083f44                __assert_func
                0x00083f8c                __assert
 .text          0x00083f98       0x4c c:/arduino/hardware/tools/g++_arm_none_eabi/bin/../lib/gcc/arm-none-eabi/4.4.1/../../../../arm-none-eabi/lib/thumb2\libc.a(lib_a-fiprintf.o)
                0x00083f98                fiprintf
                0x00083fc4                _fiprintf_r
 .text          0x00083fe4       0x50 c:/arduino/hardware/tools/g++_arm_none_eabi/bin/../lib/gcc/arm-none-eabi/4.4.1/../../../../arm-none-eabi/lib/thumb2\libc.a(lib_a-init.o)
                0x00083fe4                __libc_init_array
 .text          0x00084034       0x64 c:/arduino/hardware/tools/g++_arm_none_eabi/bin/../lib/gcc/arm-none-eabi/4.4.1/../../../../arm-none-eabi/lib/thumb2\libc.a(lib_a-iprintf.o)
                0x00084034                _iprintf_r
                0x00084060                iprintf
 .text          0x00084098      0x5a4 c:/arduino/hardware/tools/g++_arm_none_eabi/bin/../lib/gcc/arm-none-eabi/4.4.1/../../../../arm-none-eabi/lib/thumb2\libc.a(lib_a-mallocr.o)
                0x00084098                _malloc_r
 .text          0x0008463c      0x190 c:/arduino/hardware/tools/g++_arm_none_eabi/bin/../lib/gcc/arm-none-eabi/4.4.1/../../../../arm-none-eabi/lib/thumb2\libc.a(lib_a-memcpy.o)
                0x0008463c                memcpy
 .text          0x000847cc       0xb8 c:/arduino/hardware/tools/g++_arm_none_eabi/bin/../lib/gcc/arm-none-eabi/4.4.1/../../../../arm-none-eabi/lib/thumb2\libc.a(lib_a-memmove.o)
                0x000847cc                memmove
 .text          0x00084884       0xd4 c:/arduino/hardware/tools/g++_arm_none_eabi/bin/../lib/gcc/arm-none-eabi/4.4.1/../../../../arm-none-eabi/lib/thumb2\libc.a(lib_a-memset.o)
                0x00084884                memset
 .text          0x00084958        0x8 c:/arduino/hardware/tools/g++_arm_none_eabi/bin/../lib/gcc/arm-none-eabi/4.4.1/../../../../arm-none-eabi/lib/thumb2\libc.a(lib_a-mlock.o)
                0x00084958                __malloc_lock
                0x0008495c                __malloc_unlock
 .text          0x00084960      0x3b4 c:/arduino/hardware/tools/g++_arm_none_eabi/bin/../lib/gcc/arm-none-eabi/4.4.1/../../../../arm-none-eabi/lib/thumb2\libc.a(lib_a-reallocr.o)
                0x00084960                _realloc_r
 .text          0x00084d14       0x28 c:/arduino/hardware/tools/g++_arm_none_eabi/bin/../lib/gcc/arm-none-eabi/4.4.1/../../../../arm-none-eabi/lib/thumb2\libc.a(lib_a-sbrkr.o)
                0x00084d14                _sbrk_r
 .text          0x00084d3c       0x60 c:/arduino/hardware/tools/g++_arm_none_eabi/bin/../lib/gcc/arm-none-eabi/4.4.1/../../../../arm-none-eabi/lib/thumb2\libc.a(lib_a-strlen.o)
                0x00084d3c                strlen
 .text          0x00084d9c      0xd38 c:/arduino/hardware/tools/g++_arm_none_eabi/bin/../lib/gcc/arm-none-eabi/4.4.1/../../../../arm-none-eabi/lib/thumb2\libc.a(lib_a-vfiprintf.o)
                0x00084db8                _vfiprintf_r
                0x00085ab8                vfiprintf
 .text          0x00085ad4      0x104 c:/arduino/hardware/tools/g++_arm_none_eabi/bin/../lib/gcc/arm-none-eabi/4.4.1/../../../../arm-none-eabi/lib/thumb2\libc.a(lib_a-wsetup.o)
                0x00085ad4                __swsetup_r
 .text          0x00085bd8       0x10 c:/arduino/hardware/tools/g++_arm_none_eabi/bin/../lib/gcc/arm-none-eabi/4.4.1/../../../../arm-none-eabi/lib/thumb2\libc.a(lib_a-abort.o)
                0x00085bd8                abort
 .text          0x00085be8      0x178 c:/arduino/hardware/tools/g++_arm_none_eabi/bin/../lib/gcc/arm-none-eabi/4.4.1/../../../../arm-none-eabi/lib/thumb2\libc.a(lib_a-fflush.o)
                0x00085be8                _fflush_r
                0x00085d38                fflush
 .text          0x00085d60      0x1c8 c:/arduino/hardware/tools/g++_arm_none_eabi/bin/../lib/gcc/arm-none-eabi/4.4.1/../../../../arm-none-eabi/lib/thumb2\libc.a(lib_a-findfp.o)
                0x00085d60                __sfp_lock_acquire
                0x00085d64                __sfp_lock_release
                0x00085d68                __sinit_lock_acquire
                0x00085d6c                __sinit_lock_release
                0x00085d78                __fp_unlock_all
                0x00085d90                __fp_lock_all
                0x00085da8                _cleanup_r
                0x00085db4                _cleanup
                0x00085e10                __sfmoreglue
                0x00085e40                __sfp
                0x00085ec8                __sinit
 .text          0x00085f28      0x268 c:/arduino/hardware/tools/g++_arm_none_eabi/bin/../lib/gcc/arm-none-eabi/4.4.1/../../../../arm-none-eabi/lib/thumb2\libc.a(lib_a-freer.o)
                0x00085f28                _malloc_trim_r
                0x00085fd0                _free_r
 .text          0x00086190      0x334 c:/arduino/hardware/tools/g++_arm_none_eabi/bin/../lib/gcc/arm-none-eabi/4.4.1/../../../../arm-none-eabi/lib/thumb2\libc.a(lib_a-fvwrite.o)
                0x00086190                __sfvwrite_r
 .text          0x000864c4       0xa0 c:/arduino/hardware/tools/g++_arm_none_eabi/bin/../lib/gcc/arm-none-eabi/4.4.1/../../../../arm-none-eabi/lib/thumb2\libc.a(lib_a-fwalk.o)
                0x000864c4                _fwalk_reent
                0x00086518                _fwalk
 .text          0x00086564       0xdc c:/arduino/hardware/tools/g++_arm_none_eabi/bin/../lib/gcc/arm-none-eabi/4.4.1/../../../../arm-none-eabi/lib/thumb2\libc.a(lib_a-makebuf.o)
                0x00086564                __smakebuf_r
 .text          0x00086640       0x74 c:/arduino/hardware/tools/g++_arm_none_eabi/bin/../lib/gcc/arm-none-eabi/4.4.1/../../../../arm-none-eabi/lib/thumb2\libc.a(lib_a-memchr.o)
                0x00086640                memchr
 .text          0x000866b4      0x14c c:/arduino/hardware/tools/g++_arm_none_eabi/bin/../lib/gcc/arm-none-eabi/4.4.1/../../../../arm-none-eabi/lib/thumb2\libc.a(lib_a-signal.o)
                0x000866b4                _raise_r
                0x0008670c                raise
                0x0008671c                _init_signal_r
                0x00086744                _init_signal
                0x00086750                __sigtramp_r
                0x000867a4                __sigtramp
                0x000867b4                _signal_r
                0x000867f0                signal
 .text          0x00086800       0x30 c:/arduino/hardware/tools/g++_arm_none_eabi/bin/../lib/gcc/arm-none-eabi/4.4.1/../../../../arm-none-eabi/lib/thumb2\libc.a(lib_a-signalr.o)
                0x00086800                _getpid_r
                0x00086804                _kill_r
 .text          0x00086830       0x90 c:/arduino/hardware/tools/g++_arm_none_eabi/bin/../lib/gcc/arm-none-eabi/4.4.1/../../../../arm-none-eabi/lib/thumb2\libc.a(lib_a-stdio.o)
                0x00086830                __sclose
                0x00086838                __sseek
                0x00086860                __swrite
                0x0008689c                __sread
 .text          0x000868c0       0x2c c:/arduino/hardware/tools/g++_arm_none_eabi/bin/../lib/gcc/arm-none-eabi/4.4.1/../../../../arm-none-eabi/lib/thumb2\libc.a(lib_a-writer.o)
                0x000868c0                _write_r
 .text          0x000868ec       0x28 c:/arduino/hardware/tools/g++_arm_none_eabi/bin/../lib/gcc/arm-none-eabi/4.4.1/../../../../arm-none-eabi/lib/thumb2\libc.a(lib_a-closer.o)
                0x000868ec                _close_r
 .text          0x00086914       0xcc c:/arduino/hardware/tools/g++_arm_none_eabi/bin/../lib/gcc/arm-none-eabi/4.4.1/../../../../arm-none-eabi/lib/thumb2\libc.a(lib_a-fclose.o)
                0x00086914                _fclose_r
                0x000869d0                fclose
 .text          0x000869e0       0x2c c:/arduino/hardware/tools/g++_arm_none_eabi/bin/../lib/gcc/arm-none-eabi/4.4.1/../../../../arm-none-eabi/lib/thumb2\libc.a(lib_a-fstatr.o)
                0x000869e0                _fstat_r
 .text          0x00086a0c       0x28 c:/arduino/hardware/tools/g++_arm_none_eabi/bin/../lib/gcc/arm-none-eabi/4.4.1/../../../../arm-none-eabi/lib/thumb2\libc.a(lib_a-isattyr.o)
                0x00086a0c                _isatty_r
 .text          0x00086a34       0x2c c:/arduino/hardware/tools/g++_arm_none_eabi/bin/../lib/gcc/arm-none-eabi/4.4.1/../../../../arm-none-eabi/lib/thumb2\libc.a(lib_a-lseekr.o)
                0x00086a34                _lseek_r
 .text          0x00086a60       0x2c c:/arduino/hardware/tools/g++_arm_none_eabi/bin/../lib/gcc/arm-none-eabi/4.4.1/../../../../arm-none-eabi/lib/thumb2\libc.a(lib_a-readr.o)
                0x00086a60                _read_r
 *fill*         0x00086a8c        0x4 00
 .text          0x00086a90      0x278 c:/arduino/hardware/tools/g++_arm_none_eabi/bin/../lib/gcc/arm-none-eabi/4.4.1/thumb2\libgcc.a(_udivsi3.o)
                0x00086a90                __aeabi_uidiv
                0x00086a90                __udivsi3
                0x00086cec                __aeabi_uidivmod
 .text          0x00086d08        0x4 c:/arduino/hardware/tools/g++_arm_none_eabi/bin/../lib/gcc/arm-none-eabi/4.4.1/thumb2\libgcc.a(_dvmd_tls.o)
                0x00086d08                __aeabi_idiv0
                0x00086d08                __aeabi_ldiv0
 .text          0x00086d0c       0x2c c:/arduino/hardware/tools/g++_arm_none_eabi/bin/../lib/gcc/arm-none-eabi/4.4.1/thumb2\libgcc.a(_aeabi_uldivmod.o)
                0x00086d0c                __aeabi_uldivmod
 .text          0x00086d38       0x58 c:/arduino/hardware/tools/g++_arm_none_eabi/bin/../lib/gcc/arm-none-eabi/4.4.1/thumb2\libgcc.a(bpabi.o)
                0x00086d38                __gnu_uldivmod_helper
                0x00086d64                __gnu_ldivmod_helper
 .text          0x00086d90      0x364 c:/arduino/hardware/tools/g++_arm_none_eabi/bin/../lib/gcc/arm-none-eabi/4.4.1/thumb2\libgcc.a(_divdi3.o)
                0x00086d90                __divdi3
 .text          0x000870f4      0x300 c:/arduino/hardware/tools/g++_arm_none_eabi/bin/../lib/gcc/arm-none-eabi/4.4.1/thumb2\libgcc.a(_udivdi3.o)
                0x000870f4                __udivdi3
 *(.glue_7t)
 .glue_7t       0x00000000        0x0 linker stubs
 *(.glue_7)
 .glue_7        0x00000000        0x0 linker stubs
 *(.rodata .rodata* .gnu.linkonce.r.*)
 .rodata.str1.1
                0x000873f4       0x19 C:/Users/jon_000/Git/ALFRED_CORE/Release/arduino/syscalls_sam3.c.o
 .rodata.str1.1
                0x0008740d       0x71 ./ALFRED_CORE.cpp.o
 *fill*         0x0008747e        0x2 00
 .rodata._ZTV7TwoWire
                0x00087480       0x20 ./Libraries/Wire/Wire.cpp.o
                0x00087480                vtable for TwoWire
 .rodata.str1.1
                0x000874a0       0x28 ./Libraries/I2C_PWM_Servo_Driver/Adafruit_PWMServoDriver.cpp.o
 .rodata._ZN8DueTimer6TimersE
                0x000874c8       0x6c ./Libraries/DueTimer/DueTimer.cpp.o
                0x000874c8                DueTimer::Timers
 .rodata._ZZN8DueTimer9bestClockEdRmE4C.30
                0x00087534        0x8 ./Libraries/DueTimer/DueTimer.cpp.o
 .rodata.g_APinDescription
                0x0008753c      0xa2c C:/Users/jon_000/Git/ALFRED_CORE/Release/arduino.ar(variant.cpp.o)
                0x0008753c                g_APinDescription
 .rodata.str1.1
                0x00087f68        0xe C:/Users/jon_000/Git/ALFRED_CORE/Release/arduino.ar(Print.cpp.o)
 *fill*         0x00087f76        0x2 00
 .rodata._ZTV9UARTClass
                0x00087f78       0x28 C:/Users/jon_000/Git/ALFRED_CORE/Release/arduino.ar(UARTClass.cpp.o)
                0x00087f78                vtable for UARTClass
 .rodata._ZTV10USARTClass
                0x00087fa0       0x28 C:/Users/jon_000/Git/ALFRED_CORE/Release/arduino.ar(USARTClass.cpp.o)
                0x00087fa0                vtable for USARTClass
 .rodata.str1.1
                0x00087fc8       0x54 C:/Arduino/hardware/arduino/sam/variants/arduino_due_x/libsam_sam3x8e_gcc_rel.a(tc.o)
 .rodata.__func__.6630
                0x0008801c        0xd C:/Arduino/hardware/arduino/sam/variants/arduino_due_x/libsam_sam3x8e_gcc_rel.a(tc.o)
 .rodata.__func__.6636
                0x00088029        0x9 C:/Arduino/hardware/arduino/sam/variants/arduino_due_x/libsam_sam3x8e_gcc_rel.a(tc.o)
 .rodata.__func__.6642
                0x00088032        0x8 C:/Arduino/hardware/arduino/sam/variants/arduino_due_x/libsam_sam3x8e_gcc_rel.a(tc.o)
 .rodata.__func__.7038
                0x0008803a        0xe C:/Arduino/hardware/arduino/sam/variants/arduino_due_x/libsam_sam3x8e_gcc_rel.a(twi.o)
 .rodata.__func__.7046
                0x00088048        0xf C:/Arduino/hardware/arduino/sam/variants/arduino_due_x/libsam_sam3x8e_gcc_rel.a(twi.o)
 .rodata.__func__.7060
                0x00088057        0xd C:/Arduino/hardware/arduino/sam/variants/arduino_due_x/libsam_sam3x8e_gcc_rel.a(twi.o)
 .rodata.__func__.7078
                0x00088064       0x16 C:/Arduino/hardware/arduino/sam/variants/arduino_due_x/libsam_sam3x8e_gcc_rel.a(twi.o)
 .rodata.__func__.7003
                0x0008807a       0x14 C:/Arduino/hardware/arduino/sam/variants/arduino_due_x/libsam_sam3x8e_gcc_rel.a(twi.o)
 .rodata.__func__.7065
                0x0008808e        0xe C:/Arduino/hardware/arduino/sam/variants/arduino_due_x/libsam_sam3x8e_gcc_rel.a(twi.o)
 .rodata.str1.1
                0x0008809c       0xb4 C:/Arduino/hardware/arduino/sam/variants/arduino_due_x/libsam_sam3x8e_gcc_rel.a(twi.o)
 .rodata.__func__.7069
                0x00088150        0xe C:/Arduino/hardware/arduino/sam/variants/arduino_due_x/libsam_sam3x8e_gcc_rel.a(twi.o)
 .rodata.__func__.7022
                0x0008815e        0x9 C:/Arduino/hardware/arduino/sam/variants/arduino_due_x/libsam_sam3x8e_gcc_rel.a(twi.o)
 .rodata.__func__.7033
                0x00088167        0xd C:/Arduino/hardware/arduino/sam/variants/arduino_due_x/libsam_sam3x8e_gcc_rel.a(twi.o)
 .rodata.__func__.7029
                0x00088174        0xe C:/Arduino/hardware/arduino/sam/variants/arduino_due_x/libsam_sam3x8e_gcc_rel.a(twi.o)
 *fill*         0x00088182        0x2 00
 .rodata.C.0.8141
                0x00088184       0x40 C:/Arduino/hardware/arduino/sam/variants/arduino_due_x/libsam_sam3x8e_gcc_rel.a(adc.o)
 .rodata.USB_DeviceDescriptorA
                0x000881c4       0x14 C:/Users/jon_000/Git/ALFRED_CORE/Release/arduino.ar(USBCore.cpp.o)
                0x000881c4                USB_DeviceDescriptorA
 .rodata.USB_DeviceDescriptor
                0x000881d8       0x14 C:/Users/jon_000/Git/ALFRED_CORE/Release/arduino.ar(USBCore.cpp.o)
                0x000881d8                USB_DeviceDescriptor
 .rodata._ZL9EndPoints
                0x000881ec       0x14 C:/Users/jon_000/Git/ALFRED_CORE/Release/arduino.ar(USBCore.cpp.o)
 .rodata.STRING_LANGUAGE
                0x00088200        0x4 C:/Users/jon_000/Git/ALFRED_CORE/Release/arduino.ar(USBCore.cpp.o)
                0x00088200                STRING_LANGUAGE
 .rodata._ZL18test_packet_buffer
                0x00088204       0x38 C:/Users/jon_000/Git/ALFRED_CORE/Release/arduino.ar(USBCore.cpp.o)
 .rodata.STRING_PRODUCT
                0x0008823c        0xc C:/Users/jon_000/Git/ALFRED_CORE/Release/arduino.ar(USBCore.cpp.o)
                0x0008823c                STRING_PRODUCT
 .rodata.STRING_MANUFACTURER
                0x00088248        0xc C:/Users/jon_000/Git/ALFRED_CORE/Release/arduino.ar(USBCore.cpp.o)
                0x00088248                STRING_MANUFACTURER
 .rodata._ZL19USB_DeviceQualifier
                0x00088254       0x14 C:/Users/jon_000/Git/ALFRED_CORE/Release/arduino.ar(USBCore.cpp.o)
 .rodata._ZTV7Serial_
                0x00088268       0x28 C:/Users/jon_000/Git/ALFRED_CORE/Release/arduino.ar(CDC.cpp.o)
                0x00088268                vtable for Serial_
 .rodata._ZL18_cdcOtherInterface
                0x00088290       0x44 C:/Users/jon_000/Git/ALFRED_CORE/Release/arduino.ar(CDC.cpp.o)
 .rodata._ZL13_cdcInterface
                0x000882d4       0x44 C:/Users/jon_000/Git/ALFRED_CORE/Release/arduino.ar(CDC.cpp.o)
 .rodata._ZTV9Keyboard_
                0x00088318       0x20 C:/Users/jon_000/Git/ALFRED_CORE/Release/arduino.ar(HID.cpp.o)
                0x00088318                vtable for Keyboard_
 .rodata._asciimap
                0x00088338       0x80 C:/Users/jon_000/Git/ALFRED_CORE/Release/arduino.ar(HID.cpp.o)
                0x00088338                _asciimap
 .rodata._hidInterface
                0x000883b8       0x1c C:/Users/jon_000/Git/ALFRED_CORE/Release/arduino.ar(HID.cpp.o)
                0x000883b8                _hidInterface
 .rodata._hidReportDescriptor
                0x000883d4       0x68 C:/Users/jon_000/Git/ALFRED_CORE/Release/arduino.ar(HID.cpp.o)
                0x000883d4                _hidReportDescriptor
 .rodata.str1.4
                0x0008843c       0x3f c:/arduino/hardware/tools/g++_arm_none_eabi/bin/../lib/gcc/arm-none-eabi/4.4.1/../../../../arm-none-eabi/lib/thumb2\libc.a(lib_a-assert.o)
                                 0x44 (size before relaxing)
 *fill*         0x0008847b        0x1 00
 .rodata        0x0008847c        0x4 c:/arduino/hardware/tools/g++_arm_none_eabi/bin/../lib/gcc/arm-none-eabi/4.4.1/../../../../arm-none-eabi/lib/thumb2\libc.a(lib_a-impure.o)
                0x0008847c                _global_impure_ptr
 .rodata.str1.4
                0x00088480        0x2 c:/arduino/hardware/tools/g++_arm_none_eabi/bin/../lib/gcc/arm-none-eabi/4.4.1/../../../../arm-none-eabi/lib/thumb2\libc.a(lib_a-impure.o)
                                  0x4 (size before relaxing)
 *fill*         0x00088482        0x2 00
 .rodata        0x00088484       0x20 c:/arduino/hardware/tools/g++_arm_none_eabi/bin/../lib/gcc/arm-none-eabi/4.4.1/../../../../arm-none-eabi/lib/thumb2\libc.a(lib_a-vfiprintf.o)
 .rodata.str1.4
                0x000884a4       0x30 c:/arduino/hardware/tools/g++_arm_none_eabi/bin/../lib/gcc/arm-none-eabi/4.4.1/../../../../arm-none-eabi/lib/thumb2\libc.a(lib_a-vfiprintf.o)
 .rodata        0x000884d4       0x60 c:/arduino/hardware/tools/g++_arm_none_eabi/bin/../lib/gcc/arm-none-eabi/4.4.1/../../../../arm-none-eabi/lib/thumb2\libc.a(lib_a-findfp.o)
                0x000884d4                __sf_fake_stdin
                0x000884f4                __sf_fake_stdout
                0x00088514                __sf_fake_stderr
 *(.ARM.extab* .gnu.linkonce.armextab.*)
                0x00088534                . = ALIGN (0x4)
 *(.init)
 .init          0x00088534        0x4 c:/arduino/hardware/tools/g++_arm_none_eabi/bin/../lib/gcc/arm-none-eabi/4.4.1/thumb2/crti.o
                0x00088534                _init
 .init          0x00088538        0x8 c:/arduino/hardware/tools/g++_arm_none_eabi/bin/../lib/gcc/arm-none-eabi/4.4.1/thumb2/crtn.o
                0x00088540                . = ALIGN (0x4)
                0x00088540                __preinit_array_start = .
 *(.preinit_array)
                0x00088540                __preinit_array_end = .
                0x00088540                . = ALIGN (0x4)
                0x00088540                __init_array_start = .
 *(SORT(.init_array.*))
 *(.init_array)
 .init_array    0x00088540        0x4 c:/arduino/hardware/tools/g++_arm_none_eabi/bin/../lib/gcc/arm-none-eabi/4.4.1/thumb2/crtbegin.o
 .init_array    0x00088544        0x4 ./ALFRED_CORE.cpp.o
 .init_array    0x00088548        0x4 ./Libraries/Wire/Wire.cpp.o
 .init_array    0x0008854c        0x4 ./Libraries/DueTimer/DueTimer.cpp.o
 .init_array    0x00088550        0x4 C:/Users/jon_000/Git/ALFRED_CORE/Release/arduino.ar(variant.cpp.o)
 .init_array    0x00088554        0x4 C:/Users/jon_000/Git/ALFRED_CORE/Release/arduino.ar(USBCore.cpp.o)
 .init_array    0x00088558        0x4 C:/Users/jon_000/Git/ALFRED_CORE/Release/arduino.ar(CDC.cpp.o)
 .init_array    0x0008855c        0x4 C:/Users/jon_000/Git/ALFRED_CORE/Release/arduino.ar(HID.cpp.o)
                0x00088560                __init_array_end = .
                0x00088560                . = ALIGN (0x4)
 *crtbegin.o(.ctors)
 *(EXCLUDE_FILE(*crtend.o) .ctors)
 *(SORT(.ctors.*))
 *crtend.o(.ctors)
                0x00088560                . = ALIGN (0x4)
 *(.fini)
 .fini          0x00088560        0x4 c:/arduino/hardware/tools/g++_arm_none_eabi/bin/../lib/gcc/arm-none-eabi/4.4.1/thumb2/crti.o
                0x00088560                _fini
 .fini          0x00088564        0x8 c:/arduino/hardware/tools/g++_arm_none_eabi/bin/../lib/gcc/arm-none-eabi/4.4.1/thumb2/crtn.o
                0x0008856c                . = ALIGN (0x4)
                0x0008856c                __fini_array_start = .
 *(.fini_array)
 .fini_array    0x0008856c        0x4 c:/arduino/hardware/tools/g++_arm_none_eabi/bin/../lib/gcc/arm-none-eabi/4.4.1/thumb2/crtbegin.o
 *(SORT(.fini_array.*))
                0x00088570                __fini_array_end = .
 *crtbegin.o(.dtors)
 *(EXCLUDE_FILE(*crtend.o) .dtors)
 *(SORT(.dtors.*))
 *crtend.o(.dtors)
                0x00088570                . = ALIGN (0x4)
                0x00088570                _efixed = .
                0x00088570                PROVIDE (__exidx_start, .)

.jcr            0x00088570        0x0
 .jcr           0x00088570        0x0 c:/arduino/hardware/tools/g++_arm_none_eabi/bin/../lib/gcc/arm-none-eabi/4.4.1/thumb2/crtbegin.o

.vfp11_veneer   0x00088570        0x0
 .vfp11_veneer  0x00000000        0x0 linker stubs

.v4_bx          0x00088570        0x0
 .v4_bx         0x00000000        0x0 linker stubs

.ARM.exidx      0x00088570        0x8
 *(.ARM.exidx* .gnu.linkonce.armexidx.*)
 .ARM.exidx     0x00088570        0x8 c:/arduino/hardware/tools/g++_arm_none_eabi/bin/../lib/gcc/arm-none-eabi/4.4.1/thumb2\libgcc.a(_divdi3.o)
 .ARM.exidx     0x00088578        0x0 c:/arduino/hardware/tools/g++_arm_none_eabi/bin/../lib/gcc/arm-none-eabi/4.4.1/thumb2\libgcc.a(_udivdi3.o)
                                  0x8 (size before relaxing)
                0x00088578                PROVIDE (__exidx_end, .)
                0x00088578                . = ALIGN (0x4)
                0x00088578                _etext = .

.relocate       0x20070000      0x59c load address 0x00088578
                0x20070000                . = ALIGN (0x4)
                0x20070000                _srelocate = .
 *(.ramfunc .ramfunc.*)
 .ramfunc       0x20070000       0x34 C:/Users/jon_000/Git/ALFRED_CORE/Release/arduino.ar(Reset.cpp.o)
                0x20070000                banzai
 *(.data .data.*)
 .data.power_servos
                0x20070034        0x4 ./ALFRED_CORE.cpp.o
                0x20070034                power_servos
 .data._ZN8DueTimer10_frequencyE
                0x20070038       0x48 ./Libraries/DueTimer/DueTimer.cpp.o
                0x20070038                DueTimer::_frequency
 .data.SystemCoreClock
                0x20070080        0x4 C:/Arduino/hardware/arduino/sam/variants/arduino_due_x/libsam_sam3x8e_gcc_rel.a(system_sam3xa.o)
                0x20070080                SystemCoreClock
 .data._ZL5ticks
                0x20070084        0x4 C:/Users/jon_000/Git/ALFRED_CORE/Release/arduino.ar(Reset.cpp.o)
 .data._ZL12_usbLineInfo
                0x20070088        0x8 C:/Users/jon_000/Git/ALFRED_CORE/Release/arduino.ar(CDC.cpp.o)
 .data._hid_protocol
                0x20070090        0x1 C:/Users/jon_000/Git/ALFRED_CORE/Release/arduino.ar(HID.cpp.o)
                0x20070090                _hid_protocol
 .data._hid_idle
                0x20070091        0x1 C:/Users/jon_000/Git/ALFRED_CORE/Release/arduino.ar(HID.cpp.o)
                0x20070091                _hid_idle
 *fill*         0x20070092        0x2 00
 .data.g_interrupt_enabled
                0x20070094        0x4 C:/Arduino/hardware/arduino/sam/variants/arduino_due_x/libsam_sam3x8e_gcc_rel.a(interrupt_sam_nvic.o)
                0x20070094                g_interrupt_enabled
 .data          0x20070098       0xf4 c:/arduino/hardware/tools/g++_arm_none_eabi/bin/../lib/gcc/arm-none-eabi/4.4.1/../../../../arm-none-eabi/lib/thumb2\libc.a(lib_a-impure.o)
                0x20070098                _impure_ptr
 .data          0x2007018c      0x410 c:/arduino/hardware/tools/g++_arm_none_eabi/bin/../lib/gcc/arm-none-eabi/4.4.1/../../../../arm-none-eabi/lib/thumb2\libc.a(lib_a-mallocr.o)
                0x2007018c                __malloc_av_
                0x20070594                __malloc_sbrk_base
                0x20070598                __malloc_trim_threshold
                0x2007059c                . = ALIGN (0x4)
                0x2007059c                _erelocate = .

.bss            0x2007059c      0x870 load address 0x00088b14
                0x2007059c                . = ALIGN (0x4)
                0x2007059c                _sbss = .
                0x2007059c                _szero = .
 *(.bss .bss.*)
 .bss           0x2007059c        0x1 c:/arduino/hardware/tools/g++_arm_none_eabi/bin/../lib/gcc/arm-none-eabi/4.4.1/thumb2/crtbegin.o
 *fill*         0x2007059d        0x3 00
 .bss.heap.3798
                0x200705a0        0x4 C:/Users/jon_000/Git/ALFRED_CORE/Release/arduino/syscalls_sam3.c.o
 .bss.pwmR      0x200705a4        0x4 ./ALFRED_CORE.cpp.o
                0x200705a4                pwmR
 .bss.serialData
                0x200705a8       0x20 ./ALFRED_CORE.cpp.o
                0x200705a8                serialData
 .bss.connected
                0x200705c8        0x1 ./ALFRED_CORE.cpp.o
                0x200705c8                connected
 *fill*         0x200705c9        0x3 00
 .bss.pwmL      0x200705cc        0x4 ./ALFRED_CORE.cpp.o
                0x200705cc                pwmL
 .bss.Wire1     0x200705d0       0x8c ./Libraries/Wire/Wire.cpp.o
                0x200705d0                Wire1
 .bss.Wire      0x2007065c       0x8c ./Libraries/Wire/Wire.cpp.o
                0x2007065c                Wire
 .bss.Timer0    0x200706e8        0x4 ./Libraries/DueTimer/DueTimer.cpp.o
                0x200706e8                Timer0
 .bss.Timer1    0x200706ec        0x4 ./Libraries/DueTimer/DueTimer.cpp.o
                0x200706ec                Timer1
 .bss.Timer2    0x200706f0        0x4 ./Libraries/DueTimer/DueTimer.cpp.o
                0x200706f0                Timer2
 .bss.Timer3    0x200706f4        0x4 ./Libraries/DueTimer/DueTimer.cpp.o
                0x200706f4                Timer3
 .bss.Timer4    0x200706f8        0x4 ./Libraries/DueTimer/DueTimer.cpp.o
                0x200706f8                Timer4
 .bss.Timer6    0x200706fc        0x4 ./Libraries/DueTimer/DueTimer.cpp.o
                0x200706fc                Timer6
 .bss.Timer7    0x20070700        0x4 ./Libraries/DueTimer/DueTimer.cpp.o
                0x20070700                Timer7
 .bss.Timer8    0x20070704        0x4 ./Libraries/DueTimer/DueTimer.cpp.o
                0x20070704                Timer8
 .bss._ZN8DueTimer9callbacksE
                0x20070708       0x24 ./Libraries/DueTimer/DueTimer.cpp.o
                0x20070708                DueTimer::callbacks
 .bss.Timer5    0x2007072c        0x4 ./Libraries/DueTimer/DueTimer.cpp.o
                0x2007072c                Timer5
 .bss.Timer     0x20070730        0x4 ./Libraries/DueTimer/DueTimer.cpp.o
                0x20070730                Timer
 .bss.Serial    0x20070734       0x20 C:/Users/jon_000/Git/ALFRED_CORE/Release/arduino.ar(variant.cpp.o)
                0x20070734                Serial
 .bss.rx_buffer1
                0x20070754       0x48 C:/Users/jon_000/Git/ALFRED_CORE/Release/arduino.ar(variant.cpp.o)
                0x20070754                rx_buffer1
 .bss.Serial1   0x2007079c       0x20 C:/Users/jon_000/Git/ALFRED_CORE/Release/arduino.ar(variant.cpp.o)
                0x2007079c                Serial1
 .bss.Serial2   0x200707bc       0x20 C:/Users/jon_000/Git/ALFRED_CORE/Release/arduino.ar(variant.cpp.o)
                0x200707bc                Serial2
 .bss.Serial3   0x200707dc       0x20 C:/Users/jon_000/Git/ALFRED_CORE/Release/arduino.ar(variant.cpp.o)
                0x200707dc                Serial3
 .bss.rx_buffer2
                0x200707fc       0x48 C:/Users/jon_000/Git/ALFRED_CORE/Release/arduino.ar(variant.cpp.o)
                0x200707fc                rx_buffer2
 .bss.rx_buffer3
                0x20070844       0x48 C:/Users/jon_000/Git/ALFRED_CORE/Release/arduino.ar(variant.cpp.o)
                0x20070844                rx_buffer3
 .bss.rx_buffer4
                0x2007088c       0x48 C:/Users/jon_000/Git/ALFRED_CORE/Release/arduino.ar(variant.cpp.o)
                0x2007088c                rx_buffer4
 .bss.pinEnabled
                0x200708d4       0x50 C:/Users/jon_000/Git/ALFRED_CORE/Release/arduino.ar(wiring_analog.c.o)
 .bss._dwTickCount
                0x20070924        0x4 C:/Arduino/hardware/arduino/sam/variants/arduino_due_x/libsam_sam3x8e_gcc_rel.a(timetick.o)
 .bss.gpf_isr   0x20070928        0x4 C:/Arduino/hardware/arduino/sam/variants/arduino_due_x/libsam_sam3x8e_gcc_rel.a(uotghs.o)
                0x20070928                gpf_isr
 .bss.callbacksPioA
                0x2007092c       0x80 C:/Users/jon_000/Git/ALFRED_CORE/Release/arduino.ar(WInterrupts.c.o)
 .bss.callbacksPioB
                0x200709ac       0x80 C:/Users/jon_000/Git/ALFRED_CORE/Release/arduino.ar(WInterrupts.c.o)
 .bss.callbacksPioC
                0x20070a2c       0x80 C:/Users/jon_000/Git/ALFRED_CORE/Release/arduino.ar(WInterrupts.c.o)
 .bss.callbacksPioD
                0x20070aac       0x80 C:/Users/jon_000/Git/ALFRED_CORE/Release/arduino.ar(WInterrupts.c.o)
 .bss._ZL14isEndpointHalt
                0x20070b2c        0x1 C:/Users/jon_000/Git/ALFRED_CORE/Release/arduino.ar(USBCore.cpp.o)
 *fill*         0x20070b2d        0x3 00
 .bss._cmark    0x20070b30        0x4 C:/Users/jon_000/Git/ALFRED_CORE/Release/arduino.ar(USBCore.cpp.o)
                0x20070b30                _cmark
 .bss._cend     0x20070b34        0x4 C:/Users/jon_000/Git/ALFRED_CORE/Release/arduino.ar(USBCore.cpp.o)
                0x20070b34                _cend
 .bss._cdcComposite
                0x20070b38        0x4 C:/Users/jon_000/Git/ALFRED_CORE/Release/arduino.ar(USBCore.cpp.o)
                0x20070b38                _cdcComposite
 .bss._usbInitialized
                0x20070b3c        0x4 C:/Users/jon_000/Git/ALFRED_CORE/Release/arduino.ar(USBCore.cpp.o)
                0x20070b3c                _usbInitialized
 .bss.USBDevice
                0x20070b40        0x4 C:/Users/jon_000/Git/ALFRED_CORE/Release/arduino.ar(USBCore.cpp.o)
                0x20070b40                USBDevice
 .bss._usbSetInterface
                0x20070b44        0x4 C:/Users/jon_000/Git/ALFRED_CORE/Release/arduino.ar(USBCore.cpp.o)
                0x20070b44                _usbSetInterface
 .bss._ZL21isRemoteWakeUpEnabled
                0x20070b48        0x1 C:/Users/jon_000/Git/ALFRED_CORE/Release/arduino.ar(USBCore.cpp.o)
 *fill*         0x20070b49        0x3 00
 .bss._usbConfiguration
                0x20070b4c        0x4 C:/Users/jon_000/Git/ALFRED_CORE/Release/arduino.ar(USBCore.cpp.o)
                0x20070b4c                _usbConfiguration
 .bss.cdc_rx_buffer
                0x20070b50      0x208 C:/Users/jon_000/Git/ALFRED_CORE/Release/arduino.ar(CDC.cpp.o)
                0x20070b50                cdc_rx_buffer
 .bss._ZZN7Serial_6acceptEvE5guard
                0x20070d58        0x4 C:/Users/jon_000/Git/ALFRED_CORE/Release/arduino.ar(CDC.cpp.o)
 .bss.SerialUSB
                0x20070d5c       0x14 C:/Users/jon_000/Git/ALFRED_CORE/Release/arduino.ar(CDC.cpp.o)
                0x20070d5c                SerialUSB
 .bss.Mouse     0x20070d70        0x4 C:/Users/jon_000/Git/ALFRED_CORE/Release/arduino.ar(HID.cpp.o)
                0x20070d70                Mouse
 .bss.Keyboard  0x20070d74       0x10 C:/Users/jon_000/Git/ALFRED_CORE/Release/arduino.ar(HID.cpp.o)
                0x20070d74                Keyboard
 .bss.ul_recv_fifo_ptr
                0x20070d84       0x28 C:/Arduino/hardware/arduino/sam/variants/arduino_due_x/libsam_sam3x8e_gcc_rel.a(uotghs_device.o)
 .bss.ul_send_fifo_ptr
                0x20070dac       0x28 C:/Arduino/hardware/arduino/sam/variants/arduino_due_x/libsam_sam3x8e_gcc_rel.a(uotghs_device.o)
 .bss           0x20070dd4       0x34 c:/arduino/hardware/tools/g++_arm_none_eabi/bin/../lib/gcc/arm-none-eabi/4.4.1/../../../../arm-none-eabi/lib/thumb2\libc.a(lib_a-mallocr.o)
                0x20070dd4                __malloc_top_pad
                0x20070dd8                __malloc_current_mallinfo
                0x20070e00                __malloc_max_sbrked_mem
                0x20070e04                __malloc_max_total_mem
 *(COMMON)
 COMMON         0x20070e08        0x4 c:/arduino/hardware/tools/g++_arm_none_eabi/bin/../lib/gcc/arm-none-eabi/4.4.1/../../../../arm-none-eabi/lib/thumb2\libc.a(lib_a-reent.o)
                0x20070e08                errno
                0x20070e0c                . = ALIGN (0x4)
                0x20070e0c                _ebss = .
                0x20070e0c                _ezero = .
                0x20070e0c                . = ALIGN (0x4)
                0x20070e0c                _end = .

.stack_dummy    0x20070e0c        0x0
 *(.stack*)
                0x20088000                __StackTop = 0x20088000
                0x20088000                __StackLimit = (__StackTop - SIZEOF (.stack_dummy))
                0x20088000                PROVIDE (_sstack, __StackLimit)
                0x20088000                PROVIDE (_estack, __StackTop)
OUTPUT(C:/Users/jon_000/Git/ALFRED_CORE/Release/ALFRED_CORE.elf elf32-littlearm)

.ARM.attributes
                0x00000000       0x25
 .ARM.attributes
                0x00000000       0x19 c:/arduino/hardware/tools/g++_arm_none_eabi/bin/../lib/gcc/arm-none-eabi/4.4.1/thumb2/crti.o
 .ARM.attributes
                0x00000019       0x29 c:/arduino/hardware/tools/g++_arm_none_eabi/bin/../lib/gcc/arm-none-eabi/4.4.1/thumb2/crtbegin.o
 .ARM.attributes
                0x00000042       0x31 C:/Users/jon_000/Git/ALFRED_CORE/Release/arduino/syscalls_sam3.c.o
 .ARM.attributes
                0x00000073       0x31 ./ALFRED_CORE.cpp.o
 .ARM.attributes
                0x000000a4       0x31 ./Libraries/Wire/Wire.cpp.o
 .ARM.attributes
                0x000000d5       0x31 ./Libraries/I2C_PWM_Servo_Driver/Adafruit_PWMServoDriver.cpp.o
 .ARM.attributes
                0x00000106       0x31 ./Libraries/DueTimer/DueTimer.cpp.o
 .ARM.attributes
                0x00000137       0x31 C:/Users/jon_000/Git/ALFRED_CORE/Release/arduino.ar(variant.cpp.o)
 .ARM.attributes
                0x00000168       0x31 C:/Users/jon_000/Git/ALFRED_CORE/Release/arduino.ar(Print.cpp.o)
 .ARM.attributes
                0x00000199       0x31 C:/Users/jon_000/Git/ALFRED_CORE/Release/arduino.ar(RingBuffer.cpp.o)
 .ARM.attributes
                0x000001ca       0x31 C:/Users/jon_000/Git/ALFRED_CORE/Release/arduino.ar(Stream.cpp.o)
 .ARM.attributes
                0x000001fb       0x31 C:/Users/jon_000/Git/ALFRED_CORE/Release/arduino.ar(UARTClass.cpp.o)
 .ARM.attributes
                0x0000022c       0x31 C:/Users/jon_000/Git/ALFRED_CORE/Release/arduino.ar(USARTClass.cpp.o)
 .ARM.attributes
                0x0000025d       0x31 C:/Users/jon_000/Git/ALFRED_CORE/Release/arduino.ar(WString.cpp.o)
 .ARM.attributes
                0x0000028e       0x31 C:/Users/jon_000/Git/ALFRED_CORE/Release/arduino.ar(cxxabi-compat.cpp.o)
 .ARM.attributes
                0x000002bf       0x31 C:/Users/jon_000/Git/ALFRED_CORE/Release/arduino.ar(itoa.c.o)
 .ARM.attributes
                0x000002f0       0x31 C:/Users/jon_000/Git/ALFRED_CORE/Release/arduino.ar(wiring.c.o)
 .ARM.attributes
                0x00000321       0x31 C:/Users/jon_000/Git/ALFRED_CORE/Release/arduino.ar(wiring_analog.c.o)
 .ARM.attributes
                0x00000352       0x31 C:/Users/jon_000/Git/ALFRED_CORE/Release/arduino.ar(wiring_digital.c.o)
 .ARM.attributes
                0x00000383       0x31 C:/Users/jon_000/Git/ALFRED_CORE/Release/arduino.ar(dtostrf.c.o)
 .ARM.attributes
                0x000003b4       0x31 C:/Users/jon_000/Git/ALFRED_CORE/Release/arduino.ar(hooks.c.o)
 .ARM.attributes
                0x000003e5       0x31 C:/Arduino/hardware/arduino/sam/variants/arduino_due_x/libsam_sam3x8e_gcc_rel.a(pio.o)
 .ARM.attributes
                0x00000416       0x31 C:/Arduino/hardware/arduino/sam/variants/arduino_due_x/libsam_sam3x8e_gcc_rel.a(pmc.o)
 .ARM.attributes
                0x00000447       0x31 C:/Arduino/hardware/arduino/sam/variants/arduino_due_x/libsam_sam3x8e_gcc_rel.a(pwmc.o)
 .ARM.attributes
                0x00000478       0x31 C:/Arduino/hardware/arduino/sam/variants/arduino_due_x/libsam_sam3x8e_gcc_rel.a(tc.o)
 .ARM.attributes
                0x000004a9       0x31 C:/Arduino/hardware/arduino/sam/variants/arduino_due_x/libsam_sam3x8e_gcc_rel.a(timetick.o)
 .ARM.attributes
                0x000004da       0x31 C:/Arduino/hardware/arduino/sam/variants/arduino_due_x/libsam_sam3x8e_gcc_rel.a(twi.o)
 .ARM.attributes
                0x0000050b       0x31 C:/Arduino/hardware/arduino/sam/variants/arduino_due_x/libsam_sam3x8e_gcc_rel.a(wdt.o)
 .ARM.attributes
                0x0000053c       0x31 C:/Arduino/hardware/arduino/sam/variants/arduino_due_x/libsam_sam3x8e_gcc_rel.a(system_sam3xa.o)
 .ARM.attributes
                0x0000056d       0x31 C:/Arduino/hardware/arduino/sam/variants/arduino_due_x/libsam_sam3x8e_gcc_rel.a(startup_sam3xa.o)
 .ARM.attributes
                0x0000059e       0x31 C:/Arduino/hardware/arduino/sam/variants/arduino_due_x/libsam_sam3x8e_gcc_rel.a(adc.o)
 .ARM.attributes
                0x000005cf       0x31 C:/Arduino/hardware/arduino/sam/variants/arduino_due_x/libsam_sam3x8e_gcc_rel.a(uotghs.o)
 .ARM.attributes
                0x00000600       0x31 C:/Arduino/hardware/arduino/sam/variants/arduino_due_x/libsam_sam3x8e_gcc_rel.a(dacc.o)
 .ARM.attributes
                0x00000631       0x31 C:/Users/jon_000/Git/ALFRED_CORE/Release/arduino.ar(WInterrupts.c.o)
 .ARM.attributes
                0x00000662       0x31 C:/Users/jon_000/Git/ALFRED_CORE/Release/arduino.ar(cortex_handlers.c.o)
 .ARM.attributes
                0x00000693       0x31 C:/Users/jon_000/Git/ALFRED_CORE/Release/arduino.ar(main.cpp.o)
 .ARM.attributes
                0x000006c4       0x31 C:/Users/jon_000/Git/ALFRED_CORE/Release/arduino.ar(USBCore.cpp.o)
 .ARM.attributes
                0x000006f5       0x31 C:/Users/jon_000/Git/ALFRED_CORE/Release/arduino.ar(Reset.cpp.o)
 .ARM.attributes
                0x00000726       0x31 C:/Users/jon_000/Git/ALFRED_CORE/Release/arduino.ar(CDC.cpp.o)
 .ARM.attributes
                0x00000757       0x31 C:/Users/jon_000/Git/ALFRED_CORE/Release/arduino.ar(HID.cpp.o)
 .ARM.attributes
                0x00000788       0x31 C:/Arduino/hardware/arduino/sam/variants/arduino_due_x/libsam_sam3x8e_gcc_rel.a(interrupt_sam_nvic.o)
 .ARM.attributes
                0x000007b9       0x31 C:/Arduino/hardware/arduino/sam/variants/arduino_due_x/libsam_sam3x8e_gcc_rel.a(uotghs_device.o)
 .ARM.attributes
                0x000007ea       0x29 c:/arduino/hardware/tools/g++_arm_none_eabi/bin/../lib/gcc/arm-none-eabi/4.4.1/../../../../arm-none-eabi/lib/thumb2\libm.a(lib_a-s_floor.o)
 .ARM.attributes
                0x00000813       0x29 c:/arduino/hardware/tools/g++_arm_none_eabi/bin/../lib/gcc/arm-none-eabi/4.4.1/../../../../arm-none-eabi/lib/thumb2\libm.a(lib_a-s_isinfd.o)
 .ARM.attributes
                0x0000083c       0x29 c:/arduino/hardware/tools/g++_arm_none_eabi/bin/../lib/gcc/arm-none-eabi/4.4.1/../../../../arm-none-eabi/lib/thumb2\libm.a(lib_a-s_isnand.o)
 .ARM.attributes
                0x00000865       0x1b c:/arduino/hardware/tools/g++_arm_none_eabi/bin/../lib/gcc/arm-none-eabi/4.4.1/thumb2\libgcc.a(_arm_addsubdf3.o)
 .ARM.attributes
                0x00000880       0x1b c:/arduino/hardware/tools/g++_arm_none_eabi/bin/../lib/gcc/arm-none-eabi/4.4.1/thumb2\libgcc.a(_arm_muldivdf3.o)
 .ARM.attributes
                0x0000089b       0x1b c:/arduino/hardware/tools/g++_arm_none_eabi/bin/../lib/gcc/arm-none-eabi/4.4.1/thumb2\libgcc.a(_arm_cmpdf2.o)
 .ARM.attributes
                0x000008b6       0x1b c:/arduino/hardware/tools/g++_arm_none_eabi/bin/../lib/gcc/arm-none-eabi/4.4.1/thumb2\libgcc.a(_arm_fixdfsi.o)
 .ARM.attributes
                0x000008d1       0x1b c:/arduino/hardware/tools/g++_arm_none_eabi/bin/../lib/gcc/arm-none-eabi/4.4.1/thumb2\libgcc.a(_arm_fixunsdfsi.o)
 .ARM.attributes
                0x000008ec       0x1b c:/arduino/hardware/tools/g++_arm_none_eabi/bin/../lib/gcc/arm-none-eabi/4.4.1/thumb2\libgcc.a(_arm_truncdfsf2.o)
 .ARM.attributes
                0x00000907       0x1b c:/arduino/hardware/tools/g++_arm_none_eabi/bin/../lib/gcc/arm-none-eabi/4.4.1/thumb2\libgcc.a(_arm_addsubsf3.o)
 .ARM.attributes
                0x00000922       0x1b c:/arduino/hardware/tools/g++_arm_none_eabi/bin/../lib/gcc/arm-none-eabi/4.4.1/thumb2\libgcc.a(_arm_muldivsf3.o)
 .ARM.attributes
                0x0000093d       0x1b c:/arduino/hardware/tools/g++_arm_none_eabi/bin/../lib/gcc/arm-none-eabi/4.4.1/thumb2\libgcc.a(_arm_cmpsf2.o)
 .ARM.attributes
                0x00000958       0x29 c:/arduino/hardware/tools/g++_arm_none_eabi/bin/../lib/gcc/arm-none-eabi/4.4.1/../../../../arm-none-eabi/lib/thumb2\libc.a(lib_a-assert.o)
 .ARM.attributes
                0x00000981       0x29 c:/arduino/hardware/tools/g++_arm_none_eabi/bin/../lib/gcc/arm-none-eabi/4.4.1/../../../../arm-none-eabi/lib/thumb2\libc.a(lib_a-atof.o)
 .ARM.attributes
                0x000009aa       0x29 c:/arduino/hardware/tools/g++_arm_none_eabi/bin/../lib/gcc/arm-none-eabi/4.4.1/../../../../arm-none-eabi/lib/thumb2\libc.a(lib_a-atol.o)
 .ARM.attributes
                0x000009d3       0x29 c:/arduino/hardware/tools/g++_arm_none_eabi/bin/../lib/gcc/arm-none-eabi/4.4.1/../../../../arm-none-eabi/lib/thumb2\libc.a(lib_a-fiprintf.o)
 .ARM.attributes
                0x000009fc       0x29 c:/arduino/hardware/tools/g++_arm_none_eabi/bin/../lib/gcc/arm-none-eabi/4.4.1/../../../../arm-none-eabi/lib/thumb2\libc.a(lib_a-impure.o)
 .ARM.attributes
                0x00000a25       0x29 c:/arduino/hardware/tools/g++_arm_none_eabi/bin/../lib/gcc/arm-none-eabi/4.4.1/../../../../arm-none-eabi/lib/thumb2\libc.a(lib_a-init.o)
 .ARM.attributes
                0x00000a4e       0x29 c:/arduino/hardware/tools/g++_arm_none_eabi/bin/../lib/gcc/arm-none-eabi/4.4.1/../../../../arm-none-eabi/lib/thumb2\libc.a(lib_a-iprintf.o)
 .ARM.attributes
                0x00000a77       0x29 c:/arduino/hardware/tools/g++_arm_none_eabi/bin/../lib/gcc/arm-none-eabi/4.4.1/../../../../arm-none-eabi/lib/thumb2\libc.a(lib_a-isspace.o)
 .ARM.attributes
                0x00000aa0       0x29 c:/arduino/hardware/tools/g++_arm_none_eabi/bin/../lib/gcc/arm-none-eabi/4.4.1/../../../../arm-none-eabi/lib/thumb2\libc.a(lib_a-malloc.o)
 .ARM.attributes
                0x00000ac9       0x29 c:/arduino/hardware/tools/g++_arm_none_eabi/bin/../lib/gcc/arm-none-eabi/4.4.1/../../../../arm-none-eabi/lib/thumb2\libc.a(lib_a-mallocr.o)
 .ARM.attributes
                0x00000af2       0x29 c:/arduino/hardware/tools/g++_arm_none_eabi/bin/../lib/gcc/arm-none-eabi/4.4.1/../../../../arm-none-eabi/lib/thumb2\libc.a(lib_a-memcpy.o)
 .ARM.attributes
                0x00000b1b       0x29 c:/arduino/hardware/tools/g++_arm_none_eabi/bin/../lib/gcc/arm-none-eabi/4.4.1/../../../../arm-none-eabi/lib/thumb2\libc.a(lib_a-memmove.o)
 .ARM.attributes
                0x00000b44       0x29 c:/arduino/hardware/tools/g++_arm_none_eabi/bin/../lib/gcc/arm-none-eabi/4.4.1/../../../../arm-none-eabi/lib/thumb2\libc.a(lib_a-memset.o)
 .ARM.attributes
                0x00000b6d       0x29 c:/arduino/hardware/tools/g++_arm_none_eabi/bin/../lib/gcc/arm-none-eabi/4.4.1/../../../../arm-none-eabi/lib/thumb2\libc.a(lib_a-mlock.o)
 .ARM.attributes
                0x00000b96       0x29 c:/arduino/hardware/tools/g++_arm_none_eabi/bin/../lib/gcc/arm-none-eabi/4.4.1/../../../../arm-none-eabi/lib/thumb2\libc.a(lib_a-realloc.o)
 .ARM.attributes
                0x00000bbf       0x29 c:/arduino/hardware/tools/g++_arm_none_eabi/bin/../lib/gcc/arm-none-eabi/4.4.1/../../../../arm-none-eabi/lib/thumb2\libc.a(lib_a-reallocr.o)
 .ARM.attributes
                0x00000be8       0x29 c:/arduino/hardware/tools/g++_arm_none_eabi/bin/../lib/gcc/arm-none-eabi/4.4.1/../../../../arm-none-eabi/lib/thumb2\libc.a(lib_a-sbrkr.o)
 .ARM.attributes
                0x00000c11       0x29 c:/arduino/hardware/tools/g++_arm_none_eabi/bin/../lib/gcc/arm-none-eabi/4.4.1/../../../../arm-none-eabi/lib/thumb2\libc.a(lib_a-sprintf.o)
 .ARM.attributes
                0x00000c3a       0x29 c:/arduino/hardware/tools/g++_arm_none_eabi/bin/../lib/gcc/arm-none-eabi/4.4.1/../../../../arm-none-eabi/lib/thumb2\libc.a(lib_a-strchr.o)
 .ARM.attributes
                0x00000c63       0x29 c:/arduino/hardware/tools/g++_arm_none_eabi/bin/../lib/gcc/arm-none-eabi/4.4.1/../../../../arm-none-eabi/lib/thumb2\libc.a(lib_a-strcmp.o)
 .ARM.attributes
                0x00000c8c       0x29 c:/arduino/hardware/tools/g++_arm_none_eabi/bin/../lib/gcc/arm-none-eabi/4.4.1/../../../../arm-none-eabi/lib/thumb2\libc.a(lib_a-strcpy.o)
 .ARM.attributes
                0x00000cb5       0x29 c:/arduino/hardware/tools/g++_arm_none_eabi/bin/../lib/gcc/arm-none-eabi/4.4.1/../../../../arm-none-eabi/lib/thumb2\libc.a(lib_a-strlen.o)
 .ARM.attributes
                0x00000cde       0x29 c:/arduino/hardware/tools/g++_arm_none_eabi/bin/../lib/gcc/arm-none-eabi/4.4.1/../../../../arm-none-eabi/lib/thumb2\libc.a(lib_a-strncmp.o)
 .ARM.attributes
                0x00000d07       0x29 c:/arduino/hardware/tools/g++_arm_none_eabi/bin/../lib/gcc/arm-none-eabi/4.4.1/../../../../arm-none-eabi/lib/thumb2\libc.a(lib_a-strncpy.o)
 .ARM.attributes
                0x00000d30       0x29 c:/arduino/hardware/tools/g++_arm_none_eabi/bin/../lib/gcc/arm-none-eabi/4.4.1/../../../../arm-none-eabi/lib/thumb2\libc.a(lib_a-strrchr.o)
 .ARM.attributes
                0x00000d59       0x29 c:/arduino/hardware/tools/g++_arm_none_eabi/bin/../lib/gcc/arm-none-eabi/4.4.1/../../../../arm-none-eabi/lib/thumb2\libc.a(lib_a-strstr.o)
 .ARM.attributes
                0x00000d82       0x29 c:/arduino/hardware/tools/g++_arm_none_eabi/bin/../lib/gcc/arm-none-eabi/4.4.1/../../../../arm-none-eabi/lib/thumb2\libc.a(lib_a-strtod.o)
 .ARM.attributes
                0x00000dab       0x29 c:/arduino/hardware/tools/g++_arm_none_eabi/bin/../lib/gcc/arm-none-eabi/4.4.1/../../../../arm-none-eabi/lib/thumb2\libc.a(lib_a-strtol.o)
 .ARM.attributes
                0x00000dd4       0x29 c:/arduino/hardware/tools/g++_arm_none_eabi/bin/../lib/gcc/arm-none-eabi/4.4.1/../../../../arm-none-eabi/lib/thumb2\libc.a(lib_a-svfprintf.o)
 .ARM.attributes
                0x00000dfd       0x29 c:/arduino/hardware/tools/g++_arm_none_eabi/bin/../lib/gcc/arm-none-eabi/4.4.1/../../../../arm-none-eabi/lib/thumb2\libc.a(lib_a-tolower.o)
 .ARM.attributes
                0x00000e26       0x29 c:/arduino/hardware/tools/g++_arm_none_eabi/bin/../lib/gcc/arm-none-eabi/4.4.1/../../../../arm-none-eabi/lib/thumb2\libc.a(lib_a-toupper.o)
 .ARM.attributes
                0x00000e4f       0x29 c:/arduino/hardware/tools/g++_arm_none_eabi/bin/../lib/gcc/arm-none-eabi/4.4.1/../../../../arm-none-eabi/lib/thumb2\libc.a(lib_a-vfiprintf.o)
 .ARM.attributes
                0x00000e78       0x29 c:/arduino/hardware/tools/g++_arm_none_eabi/bin/../lib/gcc/arm-none-eabi/4.4.1/../../../../arm-none-eabi/lib/thumb2\libc.a(lib_a-wsetup.o)
 .ARM.attributes
                0x00000ea1       0x29 c:/arduino/hardware/tools/g++_arm_none_eabi/bin/../lib/gcc/arm-none-eabi/4.4.1/../../../../arm-none-eabi/lib/thumb2\libc.a(lib_a-abort.o)
 .ARM.attributes
                0x00000eca       0x29 c:/arduino/hardware/tools/g++_arm_none_eabi/bin/../lib/gcc/arm-none-eabi/4.4.1/../../../../arm-none-eabi/lib/thumb2\libc.a(lib_a-ctype_.o)
 .ARM.attributes
                0x00000ef3       0x29 c:/arduino/hardware/tools/g++_arm_none_eabi/bin/../lib/gcc/arm-none-eabi/4.4.1/../../../../arm-none-eabi/lib/thumb2\libc.a(lib_a-dtoa.o)
 .ARM.attributes
                0x00000f1c       0x29 c:/arduino/hardware/tools/g++_arm_none_eabi/bin/../lib/gcc/arm-none-eabi/4.4.1/../../../../arm-none-eabi/lib/thumb2\libc.a(lib_a-fflush.o)
 .ARM.attributes
                0x00000f45       0x29 c:/arduino/hardware/tools/g++_arm_none_eabi/bin/../lib/gcc/arm-none-eabi/4.4.1/../../../../arm-none-eabi/lib/thumb2\libc.a(lib_a-findfp.o)
 .ARM.attributes
                0x00000f6e       0x29 c:/arduino/hardware/tools/g++_arm_none_eabi/bin/../lib/gcc/arm-none-eabi/4.4.1/../../../../arm-none-eabi/lib/thumb2\libc.a(lib_a-freer.o)
 .ARM.attributes
                0x00000f97       0x29 c:/arduino/hardware/tools/g++_arm_none_eabi/bin/../lib/gcc/arm-none-eabi/4.4.1/../../../../arm-none-eabi/lib/thumb2\libc.a(lib_a-fvwrite.o)
 .ARM.attributes
                0x00000fc0       0x29 c:/arduino/hardware/tools/g++_arm_none_eabi/bin/../lib/gcc/arm-none-eabi/4.4.1/../../../../arm-none-eabi/lib/thumb2\libc.a(lib_a-fwalk.o)
 .ARM.attributes
                0x00000fe9       0x29 c:/arduino/hardware/tools/g++_arm_none_eabi/bin/../lib/gcc/arm-none-eabi/4.4.1/../../../../arm-none-eabi/lib/thumb2\libc.a(lib_a-gdtoa-gethex.o)
 .ARM.attributes
                0x00001012       0x29 c:/arduino/hardware/tools/g++_arm_none_eabi/bin/../lib/gcc/arm-none-eabi/4.4.1/../../../../arm-none-eabi/lib/thumb2\libc.a(lib_a-gdtoa-hexnan.o)
 .ARM.attributes
                0x0000103b       0x29 c:/arduino/hardware/tools/g++_arm_none_eabi/bin/../lib/gcc/arm-none-eabi/4.4.1/../../../../arm-none-eabi/lib/thumb2\libc.a(lib_a-locale.o)
 .ARM.attributes
                0x00001064       0x29 c:/arduino/hardware/tools/g++_arm_none_eabi/bin/../lib/gcc/arm-none-eabi/4.4.1/../../../../arm-none-eabi/lib/thumb2\libc.a(lib_a-makebuf.o)
 .ARM.attributes
                0x0000108d       0x29 c:/arduino/hardware/tools/g++_arm_none_eabi/bin/../lib/gcc/arm-none-eabi/4.4.1/../../../../arm-none-eabi/lib/thumb2\libc.a(lib_a-memchr.o)
 .ARM.attributes
                0x000010b6       0x29 c:/arduino/hardware/tools/g++_arm_none_eabi/bin/../lib/gcc/arm-none-eabi/4.4.1/../../../../arm-none-eabi/lib/thumb2\libc.a(lib_a-memcmp.o)
 .ARM.attributes
                0x000010df       0x29 c:/arduino/hardware/tools/g++_arm_none_eabi/bin/../lib/gcc/arm-none-eabi/4.4.1/../../../../arm-none-eabi/lib/thumb2\libc.a(lib_a-mprec.o)
 .ARM.attributes
                0x00001108       0x29 c:/arduino/hardware/tools/g++_arm_none_eabi/bin/../lib/gcc/arm-none-eabi/4.4.1/../../../../arm-none-eabi/lib/thumb2\libc.a(lib_a-reent.o)
 .ARM.attributes
                0x00001131       0x29 c:/arduino/hardware/tools/g++_arm_none_eabi/bin/../lib/gcc/arm-none-eabi/4.4.1/../../../../arm-none-eabi/lib/thumb2\libc.a(lib_a-signal.o)
 .ARM.attributes
                0x0000115a       0x29 c:/arduino/hardware/tools/g++_arm_none_eabi/bin/../lib/gcc/arm-none-eabi/4.4.1/../../../../arm-none-eabi/lib/thumb2\libc.a(lib_a-signalr.o)
 .ARM.attributes
                0x00001183       0x29 c:/arduino/hardware/tools/g++_arm_none_eabi/bin/../lib/gcc/arm-none-eabi/4.4.1/../../../../arm-none-eabi/lib/thumb2\libc.a(lib_a-stdio.o)
 .ARM.attributes
                0x000011ac       0x29 c:/arduino/hardware/tools/g++_arm_none_eabi/bin/../lib/gcc/arm-none-eabi/4.4.1/../../../../arm-none-eabi/lib/thumb2\libc.a(lib_a-writer.o)
 .ARM.attributes
                0x000011d5       0x29 c:/arduino/hardware/tools/g++_arm_none_eabi/bin/../lib/gcc/arm-none-eabi/4.4.1/../../../../arm-none-eabi/lib/thumb2\libc.a(lib_a-callocr.o)
 .ARM.attributes
                0x000011fe       0x29 c:/arduino/hardware/tools/g++_arm_none_eabi/bin/../lib/gcc/arm-none-eabi/4.4.1/../../../../arm-none-eabi/lib/thumb2\libc.a(lib_a-closer.o)
 .ARM.attributes
                0x00001227       0x29 c:/arduino/hardware/tools/g++_arm_none_eabi/bin/../lib/gcc/arm-none-eabi/4.4.1/../../../../arm-none-eabi/lib/thumb2\libc.a(lib_a-fclose.o)
 .ARM.attributes
                0x00001250       0x29 c:/arduino/hardware/tools/g++_arm_none_eabi/bin/../lib/gcc/arm-none-eabi/4.4.1/../../../../arm-none-eabi/lib/thumb2\libc.a(lib_a-fstatr.o)
 .ARM.attributes
                0x00001279       0x29 c:/arduino/hardware/tools/g++_arm_none_eabi/bin/../lib/gcc/arm-none-eabi/4.4.1/../../../../arm-none-eabi/lib/thumb2\libc.a(lib_a-isattyr.o)
 .ARM.attributes
                0x000012a2       0x29 c:/arduino/hardware/tools/g++_arm_none_eabi/bin/../lib/gcc/arm-none-eabi/4.4.1/../../../../arm-none-eabi/lib/thumb2\libc.a(lib_a-lseekr.o)
 .ARM.attributes
                0x000012cb       0x29 c:/arduino/hardware/tools/g++_arm_none_eabi/bin/../lib/gcc/arm-none-eabi/4.4.1/../../../../arm-none-eabi/lib/thumb2\libc.a(lib_a-readr.o)
 .ARM.attributes
                0x000012f4       0x1b c:/arduino/hardware/tools/g++_arm_none_eabi/bin/../lib/gcc/arm-none-eabi/4.4.1/thumb2\libgcc.a(_udivsi3.o)
 .ARM.attributes
                0x0000130f       0x1b c:/arduino/hardware/tools/g++_arm_none_eabi/bin/../lib/gcc/arm-none-eabi/4.4.1/thumb2\libgcc.a(_dvmd_tls.o)
 .ARM.attributes
                0x0000132a       0x1b c:/arduino/hardware/tools/g++_arm_none_eabi/bin/../lib/gcc/arm-none-eabi/4.4.1/thumb2\libgcc.a(_aeabi_uldivmod.o)
 .ARM.attributes
                0x00001345       0x29 c:/arduino/hardware/tools/g++_arm_none_eabi/bin/../lib/gcc/arm-none-eabi/4.4.1/thumb2\libgcc.a(bpabi.o)
 .ARM.attributes
                0x0000136e       0x29 c:/arduino/hardware/tools/g++_arm_none_eabi/bin/../lib/gcc/arm-none-eabi/4.4.1/thumb2\libgcc.a(_divdi3.o)
 .ARM.attributes
                0x00001397       0x29 c:/arduino/hardware/tools/g++_arm_none_eabi/bin/../lib/gcc/arm-none-eabi/4.4.1/thumb2\libgcc.a(_udivdi3.o)
 .ARM.attributes
                0x000013c0       0x29 c:/arduino/hardware/tools/g++_arm_none_eabi/bin/../lib/gcc/arm-none-eabi/4.4.1/thumb2/crtend.o
 .ARM.attributes
                0x000013e9       0x19 c:/arduino/hardware/tools/g++_arm_none_eabi/bin/../lib/gcc/arm-none-eabi/4.4.1/thumb2/crtn.o

.comment        0x00000000      0x488
 .comment       0x00000000       0x2b C:/Users/jon_000/Git/ALFRED_CORE/Release/arduino/syscalls_sam3.c.o
 .comment       0x0000002b       0x2b ./ALFRED_CORE.cpp.o
 .comment       0x00000056       0x2b ./Libraries/Wire/Wire.cpp.o
 .comment       0x00000081       0x2b ./Libraries/I2C_PWM_Servo_Driver/Adafruit_PWMServoDriver.cpp.o
 .comment       0x000000ac       0x2b ./Libraries/DueTimer/DueTimer.cpp.o
 .comment       0x000000d7       0x2b C:/Users/jon_000/Git/ALFRED_CORE/Release/arduino.ar(variant.cpp.o)
 .comment       0x00000102       0x2b C:/Users/jon_000/Git/ALFRED_CORE/Release/arduino.ar(Print.cpp.o)
 .comment       0x0000012d       0x2b C:/Users/jon_000/Git/ALFRED_CORE/Release/arduino.ar(RingBuffer.cpp.o)
 .comment       0x00000158       0x2b C:/Users/jon_000/Git/ALFRED_CORE/Release/arduino.ar(Stream.cpp.o)
 .comment       0x00000183       0x2b C:/Users/jon_000/Git/ALFRED_CORE/Release/arduino.ar(UARTClass.cpp.o)
 .comment       0x000001ae       0x2b C:/Users/jon_000/Git/ALFRED_CORE/Release/arduino.ar(USARTClass.cpp.o)
 .comment       0x000001d9       0x2b C:/Users/jon_000/Git/ALFRED_CORE/Release/arduino.ar(WString.cpp.o)
 .comment       0x00000204       0x2b C:/Users/jon_000/Git/ALFRED_CORE/Release/arduino.ar(cxxabi-compat.cpp.o)
 .comment       0x0000022f       0x2b C:/Users/jon_000/Git/ALFRED_CORE/Release/arduino.ar(itoa.c.o)
 .comment       0x0000025a       0x2b C:/Users/jon_000/Git/ALFRED_CORE/Release/arduino.ar(wiring.c.o)
 .comment       0x00000285       0x2b C:/Users/jon_000/Git/ALFRED_CORE/Release/arduino.ar(wiring_analog.c.o)
 .comment       0x000002b0       0x2b C:/Users/jon_000/Git/ALFRED_CORE/Release/arduino.ar(wiring_digital.c.o)
 .comment       0x000002db       0x2b C:/Users/jon_000/Git/ALFRED_CORE/Release/arduino.ar(dtostrf.c.o)
 .comment       0x00000306       0x2b C:/Users/jon_000/Git/ALFRED_CORE/Release/arduino.ar(hooks.c.o)
 .comment       0x00000331       0x2a C:/Arduino/hardware/arduino/sam/variants/arduino_due_x/libsam_sam3x8e_gcc_rel.a(pio.o)
                                 0x2b (size before relaxing)
 .comment       0x00000000       0x2b C:/Arduino/hardware/arduino/sam/variants/arduino_due_x/libsam_sam3x8e_gcc_rel.a(pmc.o)
 .comment       0x00000000       0x2b C:/Arduino/hardware/arduino/sam/variants/arduino_due_x/libsam_sam3x8e_gcc_rel.a(pwmc.o)
 .comment       0x00000000       0x2b C:/Arduino/hardware/arduino/sam/variants/arduino_due_x/libsam_sam3x8e_gcc_rel.a(tc.o)
 .comment       0x00000000       0x2b C:/Arduino/hardware/arduino/sam/variants/arduino_due_x/libsam_sam3x8e_gcc_rel.a(timetick.o)
 .comment       0x00000000       0x2b C:/Arduino/hardware/arduino/sam/variants/arduino_due_x/libsam_sam3x8e_gcc_rel.a(twi.o)
 .comment       0x00000000       0x2b C:/Arduino/hardware/arduino/sam/variants/arduino_due_x/libsam_sam3x8e_gcc_rel.a(wdt.o)
 .comment       0x00000000       0x2b C:/Arduino/hardware/arduino/sam/variants/arduino_due_x/libsam_sam3x8e_gcc_rel.a(system_sam3xa.o)
 .comment       0x00000000       0x2b C:/Arduino/hardware/arduino/sam/variants/arduino_due_x/libsam_sam3x8e_gcc_rel.a(startup_sam3xa.o)
 .comment       0x00000000       0x2b C:/Arduino/hardware/arduino/sam/variants/arduino_due_x/libsam_sam3x8e_gcc_rel.a(adc.o)
 .comment       0x00000000       0x2b C:/Arduino/hardware/arduino/sam/variants/arduino_due_x/libsam_sam3x8e_gcc_rel.a(uotghs.o)
 .comment       0x00000000       0x2b C:/Arduino/hardware/arduino/sam/variants/arduino_due_x/libsam_sam3x8e_gcc_rel.a(dacc.o)
 .comment       0x0000035b       0x2b C:/Users/jon_000/Git/ALFRED_CORE/Release/arduino.ar(WInterrupts.c.o)
 .comment       0x00000386       0x2b C:/Users/jon_000/Git/ALFRED_CORE/Release/arduino.ar(cortex_handlers.c.o)
 .comment       0x000003b1       0x2b C:/Users/jon_000/Git/ALFRED_CORE/Release/arduino.ar(main.cpp.o)
 .comment       0x000003dc       0x2b C:/Users/jon_000/Git/ALFRED_CORE/Release/arduino.ar(USBCore.cpp.o)
 .comment       0x00000407       0x2b C:/Users/jon_000/Git/ALFRED_CORE/Release/arduino.ar(Reset.cpp.o)
 .comment       0x00000432       0x2b C:/Users/jon_000/Git/ALFRED_CORE/Release/arduino.ar(CDC.cpp.o)
 .comment       0x0000045d       0x2b C:/Users/jon_000/Git/ALFRED_CORE/Release/arduino.ar(HID.cpp.o)
 .comment       0x00000000       0x2b C:/Arduino/hardware/arduino/sam/variants/arduino_due_x/libsam_sam3x8e_gcc_rel.a(interrupt_sam_nvic.o)
 .comment       0x00000000       0x2b C:/Arduino/hardware/arduino/sam/variants/arduino_due_x/libsam_sam3x8e_gcc_rel.a(uotghs_device.o)

.debug_abbrev   0x00000000     0x4021
 .debug_abbrev  0x00000000      0x169 C:/Users/jon_000/Git/ALFRED_CORE/Release/arduino/syscalls_sam3.c.o
 .debug_abbrev  0x00000169      0x32d ./ALFRED_CORE.cpp.o
 .debug_abbrev  0x00000496      0x512 ./Libraries/Wire/Wire.cpp.o
 .debug_abbrev  0x000009a8      0x257 ./Libraries/I2C_PWM_Servo_Driver/Adafruit_PWMServoDriver.cpp.o
 .debug_abbrev  0x00000bff      0x3d3 ./Libraries/DueTimer/DueTimer.cpp.o
 .debug_abbrev  0x00000fd2      0x2a6 C:/Users/jon_000/Git/ALFRED_CORE/Release/arduino.ar(variant.cpp.o)
 .debug_abbrev  0x00001278      0x32e C:/Users/jon_000/Git/ALFRED_CORE/Release/arduino.ar(Print.cpp.o)
 .debug_abbrev  0x000015a6      0x139 C:/Users/jon_000/Git/ALFRED_CORE/Release/arduino.ar(RingBuffer.cpp.o)
 .debug_abbrev  0x000016df      0x348 C:/Users/jon_000/Git/ALFRED_CORE/Release/arduino.ar(Stream.cpp.o)
 .debug_abbrev  0x00001a27      0x3c8 C:/Users/jon_000/Git/ALFRED_CORE/Release/arduino.ar(UARTClass.cpp.o)
 .debug_abbrev  0x00001def      0x3c8 C:/Users/jon_000/Git/ALFRED_CORE/Release/arduino.ar(USARTClass.cpp.o)
 .debug_abbrev  0x000021b7      0x35c C:/Users/jon_000/Git/ALFRED_CORE/Release/arduino.ar(WString.cpp.o)
 .debug_abbrev  0x00002513       0x27 C:/Users/jon_000/Git/ALFRED_CORE/Release/arduino.ar(cxxabi-compat.cpp.o)
 .debug_abbrev  0x0000253a       0xe0 C:/Users/jon_000/Git/ALFRED_CORE/Release/arduino.ar(itoa.c.o)
 .debug_abbrev  0x0000261a      0x14c C:/Users/jon_000/Git/ALFRED_CORE/Release/arduino.ar(wiring.c.o)
 .debug_abbrev  0x00002766      0x28f C:/Users/jon_000/Git/ALFRED_CORE/Release/arduino.ar(wiring_analog.c.o)
 .debug_abbrev  0x000029f5      0x146 C:/Users/jon_000/Git/ALFRED_CORE/Release/arduino.ar(wiring_digital.c.o)
 .debug_abbrev  0x00002b3b       0x98 C:/Users/jon_000/Git/ALFRED_CORE/Release/arduino.ar(dtostrf.c.o)
 .debug_abbrev  0x00002bd3       0x43 C:/Users/jon_000/Git/ALFRED_CORE/Release/arduino.ar(hooks.c.o)
 .debug_abbrev  0x00002c16      0x265 C:/Users/jon_000/Git/ALFRED_CORE/Release/arduino.ar(WInterrupts.c.o)
 .debug_abbrev  0x00002e7b       0xc9 C:/Users/jon_000/Git/ALFRED_CORE/Release/arduino.ar(cortex_handlers.c.o)
 .debug_abbrev  0x00002f44       0xff C:/Users/jon_000/Git/ALFRED_CORE/Release/arduino.ar(main.cpp.o)
 .debug_abbrev  0x00003043      0x507 C:/Users/jon_000/Git/ALFRED_CORE/Release/arduino.ar(USBCore.cpp.o)
 .debug_abbrev  0x0000354a      0x155 C:/Users/jon_000/Git/ALFRED_CORE/Release/arduino.ar(Reset.cpp.o)
 .debug_abbrev  0x0000369f      0x4d6 C:/Users/jon_000/Git/ALFRED_CORE/Release/arduino.ar(CDC.cpp.o)
 .debug_abbrev  0x00003b75      0x4ac C:/Users/jon_000/Git/ALFRED_CORE/Release/arduino.ar(HID.cpp.o)

.debug_info     0x00000000    0x1843a
 .debug_info    0x00000000      0x5fb C:/Users/jon_000/Git/ALFRED_CORE/Release/arduino/syscalls_sam3.c.o
 .debug_info    0x000005fb      0xaca ./ALFRED_CORE.cpp.o
 .debug_info    0x000010c5     0x2c49 ./Libraries/Wire/Wire.cpp.o
 .debug_info    0x00003d0e      0x614 ./Libraries/I2C_PWM_Servo_Driver/Adafruit_PWMServoDriver.cpp.o
 .debug_info    0x00004322      0xe53 ./Libraries/DueTimer/DueTimer.cpp.o
 .debug_info    0x00005175     0x1288 C:/Users/jon_000/Git/ALFRED_CORE/Release/arduino.ar(variant.cpp.o)
 .debug_info    0x000063fd     0x1b78 C:/Users/jon_000/Git/ALFRED_CORE/Release/arduino.ar(Print.cpp.o)
 .debug_info    0x00007f75      0x195 C:/Users/jon_000/Git/ALFRED_CORE/Release/arduino.ar(RingBuffer.cpp.o)
 .debug_info    0x0000810a     0x16a3 C:/Users/jon_000/Git/ALFRED_CORE/Release/arduino.ar(Stream.cpp.o)
 .debug_info    0x000097ad     0x1b8a C:/Users/jon_000/Git/ALFRED_CORE/Release/arduino.ar(UARTClass.cpp.o)
 .debug_info    0x0000b337     0x1c72 C:/Users/jon_000/Git/ALFRED_CORE/Release/arduino.ar(USARTClass.cpp.o)
 .debug_info    0x0000cfa9     0x2af9 C:/Users/jon_000/Git/ALFRED_CORE/Release/arduino.ar(WString.cpp.o)
 .debug_info    0x0000faa2       0x38 C:/Users/jon_000/Git/ALFRED_CORE/Release/arduino.ar(cxxabi-compat.cpp.o)
 .debug_info    0x0000fada      0x23f C:/Users/jon_000/Git/ALFRED_CORE/Release/arduino.ar(itoa.c.o)
 .debug_info    0x0000fd19      0x4a8 C:/Users/jon_000/Git/ALFRED_CORE/Release/arduino.ar(wiring.c.o)
 .debug_info    0x000101c1     0x16aa C:/Users/jon_000/Git/ALFRED_CORE/Release/arduino.ar(wiring_analog.c.o)
 .debug_info    0x0001186b      0x8bc C:/Users/jon_000/Git/ALFRED_CORE/Release/arduino.ar(wiring_digital.c.o)
 .debug_info    0x00012127       0xc2 C:/Users/jon_000/Git/ALFRED_CORE/Release/arduino.ar(dtostrf.c.o)
 .debug_info    0x000121e9       0x64 C:/Users/jon_000/Git/ALFRED_CORE/Release/arduino.ar(hooks.c.o)
 .debug_info    0x0001224d     0x1161 C:/Users/jon_000/Git/ALFRED_CORE/Release/arduino.ar(WInterrupts.c.o)
 .debug_info    0x000133ae      0x233 C:/Users/jon_000/Git/ALFRED_CORE/Release/arduino.ar(cortex_handlers.c.o)
 .debug_info    0x000135e1      0x2a6 C:/Users/jon_000/Git/ALFRED_CORE/Release/arduino.ar(main.cpp.o)
 .debug_info    0x00013887     0x1602 C:/Users/jon_000/Git/ALFRED_CORE/Release/arduino.ar(USBCore.cpp.o)
 .debug_info    0x00014e89      0x36c C:/Users/jon_000/Git/ALFRED_CORE/Release/arduino.ar(Reset.cpp.o)
 .debug_info    0x000151f5     0x2402 C:/Users/jon_000/Git/ALFRED_CORE/Release/arduino.ar(CDC.cpp.o)
 .debug_info    0x000175f7      0xe43 C:/Users/jon_000/Git/ALFRED_CORE/Release/arduino.ar(HID.cpp.o)

.debug_line     0x00000000     0x5b18
 .debug_line    0x00000000      0x2ef C:/Users/jon_000/Git/ALFRED_CORE/Release/arduino/syscalls_sam3.c.o
 .debug_line    0x000002ef      0x3b6 ./ALFRED_CORE.cpp.o
 .debug_line    0x000006a5      0x6d2 ./Libraries/Wire/Wire.cpp.o
 .debug_line    0x00000d77      0x361 ./Libraries/I2C_PWM_Servo_Driver/Adafruit_PWMServoDriver.cpp.o
 .debug_line    0x000010d8      0x47a ./Libraries/DueTimer/DueTimer.cpp.o
 .debug_line    0x00001552      0x415 C:/Users/jon_000/Git/ALFRED_CORE/Release/arduino.ar(variant.cpp.o)
 .debug_line    0x00001967      0x50f C:/Users/jon_000/Git/ALFRED_CORE/Release/arduino.ar(Print.cpp.o)
 .debug_line    0x00001e76      0x12d C:/Users/jon_000/Git/ALFRED_CORE/Release/arduino.ar(RingBuffer.cpp.o)
 .debug_line    0x00001fa3      0x47d C:/Users/jon_000/Git/ALFRED_CORE/Release/arduino.ar(Stream.cpp.o)
 .debug_line    0x00002420      0x435 C:/Users/jon_000/Git/ALFRED_CORE/Release/arduino.ar(UARTClass.cpp.o)
 .debug_line    0x00002855      0x438 C:/Users/jon_000/Git/ALFRED_CORE/Release/arduino.ar(USARTClass.cpp.o)
 .debug_line    0x00002c8d      0x908 C:/Users/jon_000/Git/ALFRED_CORE/Release/arduino.ar(WString.cpp.o)
 .debug_line    0x00003595       0x6f C:/Users/jon_000/Git/ALFRED_CORE/Release/arduino.ar(cxxabi-compat.cpp.o)
 .debug_line    0x00003604       0xca C:/Users/jon_000/Git/ALFRED_CORE/Release/arduino.ar(itoa.c.o)
 .debug_line    0x000036ce      0x1f0 C:/Users/jon_000/Git/ALFRED_CORE/Release/arduino.ar(wiring.c.o)
 .debug_line    0x000038be      0x3c9 C:/Users/jon_000/Git/ALFRED_CORE/Release/arduino.ar(wiring_analog.c.o)
 .debug_line    0x00003c87      0x286 C:/Users/jon_000/Git/ALFRED_CORE/Release/arduino.ar(wiring_digital.c.o)
 .debug_line    0x00003f0d       0x71 C:/Users/jon_000/Git/ALFRED_CORE/Release/arduino.ar(dtostrf.c.o)
 .debug_line    0x00003f7e       0x85 C:/Users/jon_000/Git/ALFRED_CORE/Release/arduino.ar(hooks.c.o)
 .debug_line    0x00004003      0x3a7 C:/Users/jon_000/Git/ALFRED_CORE/Release/arduino.ar(WInterrupts.c.o)
 .debug_line    0x000043aa      0x1fb C:/Users/jon_000/Git/ALFRED_CORE/Release/arduino.ar(cortex_handlers.c.o)
 .debug_line    0x000045a5      0x202 C:/Users/jon_000/Git/ALFRED_CORE/Release/arduino.ar(main.cpp.o)
 .debug_line    0x000047a7      0x600 C:/Users/jon_000/Git/ALFRED_CORE/Release/arduino.ar(USBCore.cpp.o)
 .debug_line    0x00004da7      0x2eb C:/Users/jon_000/Git/ALFRED_CORE/Release/arduino.ar(Reset.cpp.o)
 .debug_line    0x00005092      0x572 C:/Users/jon_000/Git/ALFRED_CORE/Release/arduino.ar(CDC.cpp.o)
 .debug_line    0x00005604      0x514 C:/Users/jon_000/Git/ALFRED_CORE/Release/arduino.ar(HID.cpp.o)

.debug_loc      0x00000000     0x5ca6
 .debug_loc     0x00000000       0xf4 C:/Users/jon_000/Git/ALFRED_CORE/Release/arduino/syscalls_sam3.c.o
 .debug_loc     0x000000f4      0x13c ./ALFRED_CORE.cpp.o
 .debug_loc     0x00000230      0x552 ./Libraries/Wire/Wire.cpp.o
 .debug_loc     0x00000782      0x21b ./Libraries/I2C_PWM_Servo_Driver/Adafruit_PWMServoDriver.cpp.o
 .debug_loc     0x0000099d      0x477 ./Libraries/DueTimer/DueTimer.cpp.o
 .debug_loc     0x00000e14       0x70 C:/Users/jon_000/Git/ALFRED_CORE/Release/arduino.ar(variant.cpp.o)
 .debug_loc     0x00000e84      0xa36 C:/Users/jon_000/Git/ALFRED_CORE/Release/arduino.ar(Print.cpp.o)
 .debug_loc     0x000018ba       0x99 C:/Users/jon_000/Git/ALFRED_CORE/Release/arduino.ar(RingBuffer.cpp.o)
 .debug_loc     0x00001953      0x6d1 C:/Users/jon_000/Git/ALFRED_CORE/Release/arduino.ar(Stream.cpp.o)
 .debug_loc     0x00002024      0x1cc C:/Users/jon_000/Git/ALFRED_CORE/Release/arduino.ar(UARTClass.cpp.o)
 .debug_loc     0x000021f0      0x1cc C:/Users/jon_000/Git/ALFRED_CORE/Release/arduino.ar(USARTClass.cpp.o)
 .debug_loc     0x000023bc     0x212d C:/Users/jon_000/Git/ALFRED_CORE/Release/arduino.ar(WString.cpp.o)
 .debug_loc     0x000044e9      0x2b1 C:/Users/jon_000/Git/ALFRED_CORE/Release/arduino.ar(itoa.c.o)
 .debug_loc     0x0000479a       0xc1 C:/Users/jon_000/Git/ALFRED_CORE/Release/arduino.ar(wiring.c.o)
 .debug_loc     0x0000485b      0x23a C:/Users/jon_000/Git/ALFRED_CORE/Release/arduino.ar(wiring_analog.c.o)
 .debug_loc     0x00004a95      0x114 C:/Users/jon_000/Git/ALFRED_CORE/Release/arduino.ar(wiring_digital.c.o)
 .debug_loc     0x00004ba9       0x89 C:/Users/jon_000/Git/ALFRED_CORE/Release/arduino.ar(dtostrf.c.o)
 .debug_loc     0x00004c32      0x113 C:/Users/jon_000/Git/ALFRED_CORE/Release/arduino.ar(WInterrupts.c.o)
 .debug_loc     0x00004d45       0x1f C:/Users/jon_000/Git/ALFRED_CORE/Release/arduino.ar(cortex_handlers.c.o)
 .debug_loc     0x00004d64       0x1f C:/Users/jon_000/Git/ALFRED_CORE/Release/arduino.ar(main.cpp.o)
 .debug_loc     0x00004d83      0x6e4 C:/Users/jon_000/Git/ALFRED_CORE/Release/arduino.ar(USBCore.cpp.o)
 .debug_loc     0x00005467       0x32 C:/Users/jon_000/Git/ALFRED_CORE/Release/arduino.ar(Reset.cpp.o)
 .debug_loc     0x00005499      0x329 C:/Users/jon_000/Git/ALFRED_CORE/Release/arduino.ar(CDC.cpp.o)
 .debug_loc     0x000057c2      0x4e4 C:/Users/jon_000/Git/ALFRED_CORE/Release/arduino.ar(HID.cpp.o)

.debug_pubnames
                0x00000000     0x1e8b
 .debug_pubnames
                0x00000000       0x87 C:/Users/jon_000/Git/ALFRED_CORE/Release/arduino/syscalls_sam3.c.o
 .debug_pubnames
                0x00000087       0xc4 ./ALFRED_CORE.cpp.o
 .debug_pubnames
                0x0000014b      0x23f ./Libraries/Wire/Wire.cpp.o
 .debug_pubnames
                0x0000038a      0x155 ./Libraries/I2C_PWM_Servo_Driver/Adafruit_PWMServoDriver.cpp.o
 .debug_pubnames
                0x000004df      0x27f ./Libraries/DueTimer/DueTimer.cpp.o
 .debug_pubnames
                0x0000075e      0x13c C:/Users/jon_000/Git/ALFRED_CORE/Release/arduino.ar(variant.cpp.o)
 .debug_pubnames
                0x0000089a      0x200 C:/Users/jon_000/Git/ALFRED_CORE/Release/arduino.ar(Print.cpp.o)
 .debug_pubnames
                0x00000a9a       0x63 C:/Users/jon_000/Git/ALFRED_CORE/Release/arduino.ar(RingBuffer.cpp.o)
 .debug_pubnames
                0x00000afd      0x179 C:/Users/jon_000/Git/ALFRED_CORE/Release/arduino.ar(Stream.cpp.o)
 .debug_pubnames
                0x00000c76      0x10e C:/Users/jon_000/Git/ALFRED_CORE/Release/arduino.ar(UARTClass.cpp.o)
 .debug_pubnames
                0x00000d84      0x11b C:/Users/jon_000/Git/ALFRED_CORE/Release/arduino.ar(USARTClass.cpp.o)
 .debug_pubnames
                0x00000e9f      0x6df C:/Users/jon_000/Git/ALFRED_CORE/Release/arduino.ar(WString.cpp.o)
 .debug_pubnames
                0x0000157e       0x29 C:/Users/jon_000/Git/ALFRED_CORE/Release/arduino.ar(cxxabi-compat.cpp.o)
 .debug_pubnames
                0x000015a7       0x37 C:/Users/jon_000/Git/ALFRED_CORE/Release/arduino.ar(itoa.c.o)
 .debug_pubnames
                0x000015de       0x32 C:/Users/jon_000/Git/ALFRED_CORE/Release/arduino.ar(wiring.c.o)
 .debug_pubnames
                0x00001610       0xa2 C:/Users/jon_000/Git/ALFRED_CORE/Release/arduino.ar(wiring_analog.c.o)
 .debug_pubnames
                0x000016b2       0x3f C:/Users/jon_000/Git/ALFRED_CORE/Release/arduino.ar(wiring_digital.c.o)
 .debug_pubnames
                0x000016f1       0x1e C:/Users/jon_000/Git/ALFRED_CORE/Release/arduino.ar(dtostrf.c.o)
 .debug_pubnames
                0x0000170f       0x7e C:/Users/jon_000/Git/ALFRED_CORE/Release/arduino.ar(WInterrupts.c.o)
 .debug_pubnames
                0x0000178d       0x49 C:/Users/jon_000/Git/ALFRED_CORE/Release/arduino.ar(cortex_handlers.c.o)
 .debug_pubnames
                0x000017d6       0x1b C:/Users/jon_000/Git/ALFRED_CORE/Release/arduino.ar(main.cpp.o)
 .debug_pubnames
                0x000017f1      0x29c C:/Users/jon_000/Git/ALFRED_CORE/Release/arduino.ar(USBCore.cpp.o)
 .debug_pubnames
                0x00001a8d       0x4d C:/Users/jon_000/Git/ALFRED_CORE/Release/arduino.ar(Reset.cpp.o)
 .debug_pubnames
                0x00001ada      0x159 C:/Users/jon_000/Git/ALFRED_CORE/Release/arduino.ar(CDC.cpp.o)
 .debug_pubnames
                0x00001c33      0x258 C:/Users/jon_000/Git/ALFRED_CORE/Release/arduino.ar(HID.cpp.o)

.debug_aranges  0x00000000      0xd18
 .debug_aranges
                0x00000000       0x70 C:/Users/jon_000/Git/ALFRED_CORE/Release/arduino/syscalls_sam3.c.o
 .debug_aranges
                0x00000070       0x48 ./ALFRED_CORE.cpp.o
 .debug_aranges
                0x000000b8       0xf0 ./Libraries/Wire/Wire.cpp.o
 .debug_aranges
                0x000001a8       0x58 ./Libraries/I2C_PWM_Servo_Driver/Adafruit_PWMServoDriver.cpp.o
 .debug_aranges
                0x00000200       0xc8 ./Libraries/DueTimer/DueTimer.cpp.o
 .debug_aranges
                0x000002c8       0x70 C:/Users/jon_000/Git/ALFRED_CORE/Release/arduino.ar(variant.cpp.o)
 .debug_aranges
                0x00000338       0xf0 C:/Users/jon_000/Git/ALFRED_CORE/Release/arduino.ar(Print.cpp.o)
 .debug_aranges
                0x00000428       0x30 C:/Users/jon_000/Git/ALFRED_CORE/Release/arduino.ar(RingBuffer.cpp.o)
 .debug_aranges
                0x00000458       0x98 C:/Users/jon_000/Git/ALFRED_CORE/Release/arduino.ar(Stream.cpp.o)
 .debug_aranges
                0x000004f0       0x70 C:/Users/jon_000/Git/ALFRED_CORE/Release/arduino.ar(UARTClass.cpp.o)
 .debug_aranges
                0x00000560       0x70 C:/Users/jon_000/Git/ALFRED_CORE/Release/arduino.ar(USARTClass.cpp.o)
 .debug_aranges
                0x000005d0      0x2e0 C:/Users/jon_000/Git/ALFRED_CORE/Release/arduino.ar(WString.cpp.o)
 .debug_aranges
                0x000008b0       0x20 C:/Users/jon_000/Git/ALFRED_CORE/Release/arduino.ar(cxxabi-compat.cpp.o)
 .debug_aranges
                0x000008d0       0x38 C:/Users/jon_000/Git/ALFRED_CORE/Release/arduino.ar(itoa.c.o)
 .debug_aranges
                0x00000908       0x30 C:/Users/jon_000/Git/ALFRED_CORE/Release/arduino.ar(wiring.c.o)
 .debug_aranges
                0x00000938       0x58 C:/Users/jon_000/Git/ALFRED_CORE/Release/arduino.ar(wiring_analog.c.o)
 .debug_aranges
                0x00000990       0x30 C:/Users/jon_000/Git/ALFRED_CORE/Release/arduino.ar(wiring_digital.c.o)
 .debug_aranges
                0x000009c0       0x20 C:/Users/jon_000/Git/ALFRED_CORE/Release/arduino.ar(dtostrf.c.o)
 .debug_aranges
                0x000009e0       0x30 C:/Users/jon_000/Git/ALFRED_CORE/Release/arduino.ar(hooks.c.o)
 .debug_aranges
                0x00000a10       0x48 C:/Users/jon_000/Git/ALFRED_CORE/Release/arduino.ar(WInterrupts.c.o)
 .debug_aranges
                0x00000a58       0x38 C:/Users/jon_000/Git/ALFRED_CORE/Release/arduino.ar(cortex_handlers.c.o)
 .debug_aranges
                0x00000a90       0x20 C:/Users/jon_000/Git/ALFRED_CORE/Release/arduino.ar(main.cpp.o)
 .debug_aranges
                0x00000ab0       0xc8 C:/Users/jon_000/Git/ALFRED_CORE/Release/arduino.ar(USBCore.cpp.o)
 .debug_aranges
                0x00000b78       0x38 C:/Users/jon_000/Git/ALFRED_CORE/Release/arduino.ar(Reset.cpp.o)
 .debug_aranges
                0x00000bb0       0x90 C:/Users/jon_000/Git/ALFRED_CORE/Release/arduino.ar(CDC.cpp.o)
 .debug_aranges
                0x00000c40       0xd8 C:/Users/jon_000/Git/ALFRED_CORE/Release/arduino.ar(HID.cpp.o)

.debug_ranges   0x00000000     0x1750
 .debug_ranges  0x00000000       0x68 C:/Users/jon_000/Git/ALFRED_CORE/Release/arduino/syscalls_sam3.c.o
 .debug_ranges  0x00000068       0x80 ./ALFRED_CORE.cpp.o
 .debug_ranges  0x000000e8      0x208 ./Libraries/Wire/Wire.cpp.o
 .debug_ranges  0x000002f0       0x98 ./Libraries/I2C_PWM_Servo_Driver/Adafruit_PWMServoDriver.cpp.o
 .debug_ranges  0x00000388      0x120 ./Libraries/DueTimer/DueTimer.cpp.o
 .debug_ranges  0x000004a8       0xa0 C:/Users/jon_000/Git/ALFRED_CORE/Release/arduino.ar(variant.cpp.o)
 .debug_ranges  0x00000548      0x160 C:/Users/jon_000/Git/ALFRED_CORE/Release/arduino.ar(Print.cpp.o)
 .debug_ranges  0x000006a8       0x40 C:/Users/jon_000/Git/ALFRED_CORE/Release/arduino.ar(RingBuffer.cpp.o)
 .debug_ranges  0x000006e8       0xd8 C:/Users/jon_000/Git/ALFRED_CORE/Release/arduino.ar(Stream.cpp.o)
 .debug_ranges  0x000007c0       0x98 C:/Users/jon_000/Git/ALFRED_CORE/Release/arduino.ar(UARTClass.cpp.o)
 .debug_ranges  0x00000858       0x98 C:/Users/jon_000/Git/ALFRED_CORE/Release/arduino.ar(USARTClass.cpp.o)
 .debug_ranges  0x000008f0      0x800 C:/Users/jon_000/Git/ALFRED_CORE/Release/arduino.ar(WString.cpp.o)
 .debug_ranges  0x000010f0       0x18 C:/Users/jon_000/Git/ALFRED_CORE/Release/arduino.ar(cxxabi-compat.cpp.o)
 .debug_ranges  0x00001108       0x30 C:/Users/jon_000/Git/ALFRED_CORE/Release/arduino.ar(itoa.c.o)
 .debug_ranges  0x00001138       0x28 C:/Users/jon_000/Git/ALFRED_CORE/Release/arduino.ar(wiring.c.o)
 .debug_ranges  0x00001160       0x68 C:/Users/jon_000/Git/ALFRED_CORE/Release/arduino.ar(wiring_analog.c.o)
 .debug_ranges  0x000011c8       0x28 C:/Users/jon_000/Git/ALFRED_CORE/Release/arduino.ar(wiring_digital.c.o)
 .debug_ranges  0x000011f0       0x18 C:/Users/jon_000/Git/ALFRED_CORE/Release/arduino.ar(dtostrf.c.o)
 .debug_ranges  0x00001208       0x28 C:/Users/jon_000/Git/ALFRED_CORE/Release/arduino.ar(hooks.c.o)
 .debug_ranges  0x00001230       0x58 C:/Users/jon_000/Git/ALFRED_CORE/Release/arduino.ar(WInterrupts.c.o)
 .debug_ranges  0x00001288       0x30 C:/Users/jon_000/Git/ALFRED_CORE/Release/arduino.ar(cortex_handlers.c.o)
 .debug_ranges  0x000012b8       0x18 C:/Users/jon_000/Git/ALFRED_CORE/Release/arduino.ar(main.cpp.o)
 .debug_ranges  0x000012d0      0x240 C:/Users/jon_000/Git/ALFRED_CORE/Release/arduino.ar(USBCore.cpp.o)
 .debug_ranges  0x00001510       0x30 C:/Users/jon_000/Git/ALFRED_CORE/Release/arduino.ar(Reset.cpp.o)
 .debug_ranges  0x00001540       0xc0 C:/Users/jon_000/Git/ALFRED_CORE/Release/arduino.ar(CDC.cpp.o)
 .debug_ranges  0x00001600      0x150 C:/Users/jon_000/Git/ALFRED_CORE/Release/arduino.ar(HID.cpp.o)

.debug_str      0x00000000     0x4b8a
 .debug_str     0x00000000      0x2a6 C:/Users/jon_000/Git/ALFRED_CORE/Release/arduino/syscalls_sam3.c.o
                                0x315 (size before relaxing)
 .debug_str     0x000002a6      0x805 ./ALFRED_CORE.cpp.o
                                0x8f7 (size before relaxing)
 .debug_str     0x00000aab     0x1681 ./Libraries/Wire/Wire.cpp.o
                               0x1ae6 (size before relaxing)
 .debug_str     0x0000212c       0x70 ./Libraries/I2C_PWM_Servo_Driver/Adafruit_PWMServoDriver.cpp.o
                                0x30c (size before relaxing)
 .debug_str     0x0000219c      0x150 ./Libraries/DueTimer/DueTimer.cpp.o
                                0x860 (size before relaxing)
 .debug_str     0x000022ec      0x3e6 C:/Users/jon_000/Git/ALFRED_CORE/Release/arduino.ar(variant.cpp.o)
                                0xd42 (size before relaxing)
 .debug_str     0x000026d2      0x3aa C:/Users/jon_000/Git/ALFRED_CORE/Release/arduino.ar(Print.cpp.o)
                                0xd86 (size before relaxing)
 .debug_str     0x00002a7c       0x3d C:/Users/jon_000/Git/ALFRED_CORE/Release/arduino.ar(RingBuffer.cpp.o)
                                0x12e (size before relaxing)
 .debug_str     0x00002ab9       0x9b C:/Users/jon_000/Git/ALFRED_CORE/Release/arduino.ar(Stream.cpp.o)
                                0xd07 (size before relaxing)
 .debug_str     0x00002b54      0x23c C:/Users/jon_000/Git/ALFRED_CORE/Release/arduino.ar(UARTClass.cpp.o)
                               0x1277 (size before relaxing)
 .debug_str     0x00002d90      0x1f8 C:/Users/jon_000/Git/ALFRED_CORE/Release/arduino.ar(USARTClass.cpp.o)
                               0x12d5 (size before relaxing)
 .debug_str     0x00002f88      0x231 C:/Users/jon_000/Git/ALFRED_CORE/Release/arduino.ar(WString.cpp.o)
                                0xb89 (size before relaxing)
 .debug_str     0x000031b9       0x53 C:/Users/jon_000/Git/ALFRED_CORE/Release/arduino.ar(cxxabi-compat.cpp.o)
                                 0x61 (size before relaxing)
 .debug_str     0x0000320c       0x4b C:/Users/jon_000/Git/ALFRED_CORE/Release/arduino.ar(itoa.c.o)
                                 0xf7 (size before relaxing)
 .debug_str     0x00003257       0x64 C:/Users/jon_000/Git/ALFRED_CORE/Release/arduino.ar(wiring.c.o)
                                0x1eb (size before relaxing)
 .debug_str     0x000032bb      0x46d C:/Users/jon_000/Git/ALFRED_CORE/Release/arduino.ar(wiring_analog.c.o)
                                0xbd2 (size before relaxing)
 .debug_str     0x00003728       0x66 C:/Users/jon_000/Git/ALFRED_CORE/Release/arduino.ar(wiring_digital.c.o)
                                0x633 (size before relaxing)
 .debug_str     0x0000378e       0x54 C:/Users/jon_000/Git/ALFRED_CORE/Release/arduino.ar(dtostrf.c.o)
                                 0x86 (size before relaxing)
 .debug_str     0x000037e2       0x4d C:/Users/jon_000/Git/ALFRED_CORE/Release/arduino.ar(hooks.c.o)
                                 0x59 (size before relaxing)
 .debug_str     0x0000382f       0xcf C:/Users/jon_000/Git/ALFRED_CORE/Release/arduino.ar(WInterrupts.c.o)
                                0x9e8 (size before relaxing)
 .debug_str     0x000038fe       0x6b C:/Users/jon_000/Git/ALFRED_CORE/Release/arduino.ar(cortex_handlers.c.o)
                                0x17f (size before relaxing)
 .debug_str     0x00003969       0xd6 C:/Users/jon_000/Git/ALFRED_CORE/Release/arduino.ar(main.cpp.o)
                                0x1ea (size before relaxing)
 .debug_str     0x00003a3f      0x94e C:/Users/jon_000/Git/ALFRED_CORE/Release/arduino.ar(USBCore.cpp.o)
                                0xc3c (size before relaxing)
 .debug_str     0x0000438d       0xcc C:/Users/jon_000/Git/ALFRED_CORE/Release/arduino.ar(Reset.cpp.o)
                                0x20f (size before relaxing)
 .debug_str     0x00004459      0x3e2 C:/Users/jon_000/Git/ALFRED_CORE/Release/arduino.ar(CDC.cpp.o)
                               0x1644 (size before relaxing)
 .debug_str     0x0000483b      0x34f C:/Users/jon_000/Git/ALFRED_CORE/Release/arduino.ar(HID.cpp.o)
                                0x630 (size before relaxing)

.debug_frame    0x00000000     0x3348
 .debug_frame   0x00000000       0xd0 C:/Users/jon_000/Git/ALFRED_CORE/Release/arduino/syscalls_sam3.c.o
 .debug_frame   0x000000d0       0xa8 ./ALFRED_CORE.cpp.o
 .debug_frame   0x00000178      0x240 ./Libraries/Wire/Wire.cpp.o
 .debug_frame   0x000003b8       0xd0 ./Libraries/I2C_PWM_Servo_Driver/Adafruit_PWMServoDriver.cpp.o
 .debug_frame   0x00000488      0x22c ./Libraries/DueTimer/DueTimer.cpp.o
 .debug_frame   0x000006b4       0xe8 C:/Users/jon_000/Git/ALFRED_CORE/Release/arduino.ar(variant.cpp.o)
 .debug_frame   0x0000079c      0x2c8 C:/Users/jon_000/Git/ALFRED_CORE/Release/arduino.ar(Print.cpp.o)
 .debug_frame   0x00000a64       0x58 C:/Users/jon_000/Git/ALFRED_CORE/Release/arduino.ar(RingBuffer.cpp.o)
 .debug_frame   0x00000abc      0x1b8 C:/Users/jon_000/Git/ALFRED_CORE/Release/arduino.ar(Stream.cpp.o)
 .debug_frame   0x00000c74       0xf8 C:/Users/jon_000/Git/ALFRED_CORE/Release/arduino.ar(UARTClass.cpp.o)
 .debug_frame   0x00000d6c       0xf8 C:/Users/jon_000/Git/ALFRED_CORE/Release/arduino.ar(USARTClass.cpp.o)
 .debug_frame   0x00000e64      0x920 C:/Users/jon_000/Git/ALFRED_CORE/Release/arduino.ar(WString.cpp.o)
 .debug_frame   0x00001784       0x20 C:/Users/jon_000/Git/ALFRED_CORE/Release/arduino.ar(cxxabi-compat.cpp.o)
 .debug_frame   0x000017a4       0x6c C:/Users/jon_000/Git/ALFRED_CORE/Release/arduino.ar(itoa.c.o)
 .debug_frame   0x00001810       0x58 C:/Users/jon_000/Git/ALFRED_CORE/Release/arduino.ar(wiring.c.o)
 .debug_frame   0x00001868       0xb4 C:/Users/jon_000/Git/ALFRED_CORE/Release/arduino.ar(wiring_analog.c.o)
 .debug_frame   0x0000191c       0x64 C:/Users/jon_000/Git/ALFRED_CORE/Release/arduino.ar(wiring_digital.c.o)
 .debug_frame   0x00001980       0x34 C:/Users/jon_000/Git/ALFRED_CORE/Release/arduino.ar(dtostrf.c.o)
 .debug_frame   0x000019b4       0x40 C:/Users/jon_000/Git/ALFRED_CORE/Release/arduino.ar(hooks.c.o)
 .debug_frame   0x000019f4       0xb0 C:/Users/jon_000/Git/ALFRED_CORE/Release/arduino.ar(WInterrupts.c.o)
 .debug_frame   0x00001aa4       0x58 C:/Users/jon_000/Git/ALFRED_CORE/Release/arduino.ar(cortex_handlers.c.o)
 .debug_frame   0x00001afc       0x28 C:/Users/jon_000/Git/ALFRED_CORE/Release/arduino.ar(main.cpp.o)
 .debug_frame   0x00001b24      0x234 C:/Users/jon_000/Git/ALFRED_CORE/Release/arduino.ar(USBCore.cpp.o)
 .debug_frame   0x00001d58       0x58 C:/Users/jon_000/Git/ALFRED_CORE/Release/arduino.ar(Reset.cpp.o)
 .debug_frame   0x00001db0      0x13c C:/Users/jon_000/Git/ALFRED_CORE/Release/arduino.ar(CDC.cpp.o)
 .debug_frame   0x00001eec      0x1d8 C:/Users/jon_000/Git/ALFRED_CORE/Release/arduino.ar(HID.cpp.o)
 .debug_frame   0x000020c4       0x34 c:/arduino/hardware/tools/g++_arm_none_eabi/bin/../lib/gcc/arm-none-eabi/4.4.1/../../../../arm-none-eabi/lib/thumb2\libm.a(lib_a-s_floor.o)
 .debug_frame   0x000020f8       0x20 c:/arduino/hardware/tools/g++_arm_none_eabi/bin/../lib/gcc/arm-none-eabi/4.4.1/../../../../arm-none-eabi/lib/thumb2\libm.a(lib_a-s_isinfd.o)
 .debug_frame   0x00002118       0x20 c:/arduino/hardware/tools/g++_arm_none_eabi/bin/../lib/gcc/arm-none-eabi/4.4.1/../../../../arm-none-eabi/lib/thumb2\libm.a(lib_a-s_isnand.o)
 .debug_frame   0x00002138       0x44 c:/arduino/hardware/tools/g++_arm_none_eabi/bin/../lib/gcc/arm-none-eabi/4.4.1/../../../../arm-none-eabi/lib/thumb2\libc.a(lib_a-assert.o)
 .debug_frame   0x0000217c       0x20 c:/arduino/hardware/tools/g++_arm_none_eabi/bin/../lib/gcc/arm-none-eabi/4.4.1/../../../../arm-none-eabi/lib/thumb2\libc.a(lib_a-atof.o)
 .debug_frame   0x0000219c       0x30 c:/arduino/hardware/tools/g++_arm_none_eabi/bin/../lib/gcc/arm-none-eabi/4.4.1/../../../../arm-none-eabi/lib/thumb2\libc.a(lib_a-atol.o)
 .debug_frame   0x000021cc       0x5c c:/arduino/hardware/tools/g++_arm_none_eabi/bin/../lib/gcc/arm-none-eabi/4.4.1/../../../../arm-none-eabi/lib/thumb2\libc.a(lib_a-fiprintf.o)
 .debug_frame   0x00002228       0x2c c:/arduino/hardware/tools/g++_arm_none_eabi/bin/../lib/gcc/arm-none-eabi/4.4.1/../../../../arm-none-eabi/lib/thumb2\libc.a(lib_a-init.o)
 .debug_frame   0x00002254       0x5c c:/arduino/hardware/tools/g++_arm_none_eabi/bin/../lib/gcc/arm-none-eabi/4.4.1/../../../../arm-none-eabi/lib/thumb2\libc.a(lib_a-iprintf.o)
 .debug_frame   0x000022b0       0x20 c:/arduino/hardware/tools/g++_arm_none_eabi/bin/../lib/gcc/arm-none-eabi/4.4.1/../../../../arm-none-eabi/lib/thumb2\libc.a(lib_a-isspace.o)
 .debug_frame   0x000022d0       0x30 c:/arduino/hardware/tools/g++_arm_none_eabi/bin/../lib/gcc/arm-none-eabi/4.4.1/../../../../arm-none-eabi/lib/thumb2\libc.a(lib_a-malloc.o)
 .debug_frame   0x00002300       0x3c c:/arduino/hardware/tools/g++_arm_none_eabi/bin/../lib/gcc/arm-none-eabi/4.4.1/../../../../arm-none-eabi/lib/thumb2\libc.a(lib_a-mallocr.o)
 .debug_frame   0x0000233c       0x34 c:/arduino/hardware/tools/g++_arm_none_eabi/bin/../lib/gcc/arm-none-eabi/4.4.1/../../../../arm-none-eabi/lib/thumb2\libc.a(lib_a-memcpy.o)
 .debug_frame   0x00002370       0x2c c:/arduino/hardware/tools/g++_arm_none_eabi/bin/../lib/gcc/arm-none-eabi/4.4.1/../../../../arm-none-eabi/lib/thumb2\libc.a(lib_a-memmove.o)
 .debug_frame   0x0000239c       0x28 c:/arduino/hardware/tools/g++_arm_none_eabi/bin/../lib/gcc/arm-none-eabi/4.4.1/../../../../arm-none-eabi/lib/thumb2\libc.a(lib_a-memset.o)
 .debug_frame   0x000023c4       0x30 c:/arduino/hardware/tools/g++_arm_none_eabi/bin/../lib/gcc/arm-none-eabi/4.4.1/../../../../arm-none-eabi/lib/thumb2\libc.a(lib_a-mlock.o)
 .debug_frame   0x000023f4       0x20 c:/arduino/hardware/tools/g++_arm_none_eabi/bin/../lib/gcc/arm-none-eabi/4.4.1/../../../../arm-none-eabi/lib/thumb2\libc.a(lib_a-realloc.o)
 .debug_frame   0x00002414       0x3c c:/arduino/hardware/tools/g++_arm_none_eabi/bin/../lib/gcc/arm-none-eabi/4.4.1/../../../../arm-none-eabi/lib/thumb2\libc.a(lib_a-reallocr.o)
 .debug_frame   0x00002450       0x2c c:/arduino/hardware/tools/g++_arm_none_eabi/bin/../lib/gcc/arm-none-eabi/4.4.1/../../../../arm-none-eabi/lib/thumb2\libc.a(lib_a-sbrkr.o)
 .debug_frame   0x0000247c       0x5c c:/arduino/hardware/tools/g++_arm_none_eabi/bin/../lib/gcc/arm-none-eabi/4.4.1/../../../../arm-none-eabi/lib/thumb2\libc.a(lib_a-sprintf.o)
 .debug_frame   0x000024d8       0x28 c:/arduino/hardware/tools/g++_arm_none_eabi/bin/../lib/gcc/arm-none-eabi/4.4.1/../../../../arm-none-eabi/lib/thumb2\libc.a(lib_a-strchr.o)
 .debug_frame   0x00002500       0x30 c:/arduino/hardware/tools/g++_arm_none_eabi/bin/../lib/gcc/arm-none-eabi/4.4.1/../../../../arm-none-eabi/lib/thumb2\libc.a(lib_a-strcmp.o)
 .debug_frame   0x00002530       0x20 c:/arduino/hardware/tools/g++_arm_none_eabi/bin/../lib/gcc/arm-none-eabi/4.4.1/../../../../arm-none-eabi/lib/thumb2\libc.a(lib_a-strcpy.o)
 .debug_frame   0x00002550       0x20 c:/arduino/hardware/tools/g++_arm_none_eabi/bin/../lib/gcc/arm-none-eabi/4.4.1/../../../../arm-none-eabi/lib/thumb2\libc.a(lib_a-strlen.o)
 .debug_frame   0x00002570       0x28 c:/arduino/hardware/tools/g++_arm_none_eabi/bin/../lib/gcc/arm-none-eabi/4.4.1/../../../../arm-none-eabi/lib/thumb2\libc.a(lib_a-strncmp.o)
 .debug_frame   0x00002598       0x28 c:/arduino/hardware/tools/g++_arm_none_eabi/bin/../lib/gcc/arm-none-eabi/4.4.1/../../../../arm-none-eabi/lib/thumb2\libc.a(lib_a-strncpy.o)
 .debug_frame   0x000025c0       0x2c c:/arduino/hardware/tools/g++_arm_none_eabi/bin/../lib/gcc/arm-none-eabi/4.4.1/../../../../arm-none-eabi/lib/thumb2\libc.a(lib_a-strrchr.o)
 .debug_frame   0x000025ec       0x90 c:/arduino/hardware/tools/g++_arm_none_eabi/bin/../lib/gcc/arm-none-eabi/4.4.1/../../../../arm-none-eabi/lib/thumb2\libc.a(lib_a-strstr.o)
 .debug_frame   0x0000267c       0x6c c:/arduino/hardware/tools/g++_arm_none_eabi/bin/../lib/gcc/arm-none-eabi/4.4.1/../../../../arm-none-eabi/lib/thumb2\libc.a(lib_a-strtod.o)
 .debug_frame   0x000026e8       0x54 c:/arduino/hardware/tools/g++_arm_none_eabi/bin/../lib/gcc/arm-none-eabi/4.4.1/../../../../arm-none-eabi/lib/thumb2\libc.a(lib_a-strtol.o)
 .debug_frame   0x0000273c       0x68 c:/arduino/hardware/tools/g++_arm_none_eabi/bin/../lib/gcc/arm-none-eabi/4.4.1/../../../../arm-none-eabi/lib/thumb2\libc.a(lib_a-svfprintf.o)
 .debug_frame   0x000027a4       0x20 c:/arduino/hardware/tools/g++_arm_none_eabi/bin/../lib/gcc/arm-none-eabi/4.4.1/../../../../arm-none-eabi/lib/thumb2\libc.a(lib_a-tolower.o)
 .debug_frame   0x000027c4       0x20 c:/arduino/hardware/tools/g++_arm_none_eabi/bin/../lib/gcc/arm-none-eabi/4.4.1/../../../../arm-none-eabi/lib/thumb2\libc.a(lib_a-toupper.o)
 .debug_frame   0x000027e4       0x70 c:/arduino/hardware/tools/g++_arm_none_eabi/bin/../lib/gcc/arm-none-eabi/4.4.1/../../../../arm-none-eabi/lib/thumb2\libc.a(lib_a-vfiprintf.o)
 .debug_frame   0x00002854       0x2c c:/arduino/hardware/tools/g++_arm_none_eabi/bin/../lib/gcc/arm-none-eabi/4.4.1/../../../../arm-none-eabi/lib/thumb2\libc.a(lib_a-wsetup.o)
 .debug_frame   0x00002880       0x28 c:/arduino/hardware/tools/g++_arm_none_eabi/bin/../lib/gcc/arm-none-eabi/4.4.1/../../../../arm-none-eabi/lib/thumb2\libc.a(lib_a-abort.o)
 .debug_frame   0x000028a8       0x64 c:/arduino/hardware/tools/g++_arm_none_eabi/bin/../lib/gcc/arm-none-eabi/4.4.1/../../../../arm-none-eabi/lib/thumb2\libc.a(lib_a-dtoa.o)
 .debug_frame   0x0000290c       0x40 c:/arduino/hardware/tools/g++_arm_none_eabi/bin/../lib/gcc/arm-none-eabi/4.4.1/../../../../arm-none-eabi/lib/thumb2\libc.a(lib_a-fflush.o)
 .debug_frame   0x0000294c      0x11c c:/arduino/hardware/tools/g++_arm_none_eabi/bin/../lib/gcc/arm-none-eabi/4.4.1/../../../../arm-none-eabi/lib/thumb2\libc.a(lib_a-findfp.o)
 .debug_frame   0x00002a68       0x50 c:/arduino/hardware/tools/g++_arm_none_eabi/bin/../lib/gcc/arm-none-eabi/4.4.1/../../../../arm-none-eabi/lib/thumb2\libc.a(lib_a-freer.o)
 .debug_frame   0x00002ab8       0x3c c:/arduino/hardware/tools/g++_arm_none_eabi/bin/../lib/gcc/arm-none-eabi/4.4.1/../../../../arm-none-eabi/lib/thumb2\libc.a(lib_a-fvwrite.o)
 .debug_frame   0x00002af4       0x54 c:/arduino/hardware/tools/g++_arm_none_eabi/bin/../lib/gcc/arm-none-eabi/4.4.1/../../../../arm-none-eabi/lib/thumb2\libc.a(lib_a-fwalk.o)
 .debug_frame   0x00002b48       0x6c c:/arduino/hardware/tools/g++_arm_none_eabi/bin/../lib/gcc/arm-none-eabi/4.4.1/../../../../arm-none-eabi/lib/thumb2\libc.a(lib_a-gdtoa-gethex.o)
 .debug_frame   0x00002bb4       0x3c c:/arduino/hardware/tools/g++_arm_none_eabi/bin/../lib/gcc/arm-none-eabi/4.4.1/../../../../arm-none-eabi/lib/thumb2\libc.a(lib_a-gdtoa-hexnan.o)
 .debug_frame   0x00002bf0       0x6c c:/arduino/hardware/tools/g++_arm_none_eabi/bin/../lib/gcc/arm-none-eabi/4.4.1/../../../../arm-none-eabi/lib/thumb2\libc.a(lib_a-locale.o)
 .debug_frame   0x00002c5c       0x34 c:/arduino/hardware/tools/g++_arm_none_eabi/bin/../lib/gcc/arm-none-eabi/4.4.1/../../../../arm-none-eabi/lib/thumb2\libc.a(lib_a-makebuf.o)
 .debug_frame   0x00002c90       0x28 c:/arduino/hardware/tools/g++_arm_none_eabi/bin/../lib/gcc/arm-none-eabi/4.4.1/../../../../arm-none-eabi/lib/thumb2\libc.a(lib_a-memchr.o)
 .debug_frame   0x00002cb8       0x28 c:/arduino/hardware/tools/g++_arm_none_eabi/bin/../lib/gcc/arm-none-eabi/4.4.1/../../../../arm-none-eabi/lib/thumb2\libc.a(lib_a-memcmp.o)
 .debug_frame   0x00002ce0      0x240 c:/arduino/hardware/tools/g++_arm_none_eabi/bin/../lib/gcc/arm-none-eabi/4.4.1/../../../../arm-none-eabi/lib/thumb2\libc.a(lib_a-mprec.o)
 .debug_frame   0x00002f20       0x64 c:/arduino/hardware/tools/g++_arm_none_eabi/bin/../lib/gcc/arm-none-eabi/4.4.1/../../../../arm-none-eabi/lib/thumb2\libc.a(lib_a-reent.o)
 .debug_frame   0x00002f84       0xc0 c:/arduino/hardware/tools/g++_arm_none_eabi/bin/../lib/gcc/arm-none-eabi/4.4.1/../../../../arm-none-eabi/lib/thumb2\libc.a(lib_a-signal.o)
 .debug_frame   0x00003044       0x3c c:/arduino/hardware/tools/g++_arm_none_eabi/bin/../lib/gcc/arm-none-eabi/4.4.1/../../../../arm-none-eabi/lib/thumb2\libc.a(lib_a-signalr.o)
 .debug_frame   0x00003080       0x70 c:/arduino/hardware/tools/g++_arm_none_eabi/bin/../lib/gcc/arm-none-eabi/4.4.1/../../../../arm-none-eabi/lib/thumb2\libc.a(lib_a-stdio.o)
 .debug_frame   0x000030f0       0x2c c:/arduino/hardware/tools/g++_arm_none_eabi/bin/../lib/gcc/arm-none-eabi/4.4.1/../../../../arm-none-eabi/lib/thumb2\libc.a(lib_a-writer.o)
 .debug_frame   0x0000311c       0x2c c:/arduino/hardware/tools/g++_arm_none_eabi/bin/../lib/gcc/arm-none-eabi/4.4.1/../../../../arm-none-eabi/lib/thumb2\libc.a(lib_a-callocr.o)
 .debug_frame   0x00003148       0x2c c:/arduino/hardware/tools/g++_arm_none_eabi/bin/../lib/gcc/arm-none-eabi/4.4.1/../../../../arm-none-eabi/lib/thumb2\libc.a(lib_a-closer.o)
 .debug_frame   0x00003174       0x3c c:/arduino/hardware/tools/g++_arm_none_eabi/bin/../lib/gcc/arm-none-eabi/4.4.1/../../../../arm-none-eabi/lib/thumb2\libc.a(lib_a-fclose.o)
 .debug_frame   0x000031b0       0x2c c:/arduino/hardware/tools/g++_arm_none_eabi/bin/../lib/gcc/arm-none-eabi/4.4.1/../../../../arm-none-eabi/lib/thumb2\libc.a(lib_a-fstatr.o)
 .debug_frame   0x000031dc       0x2c c:/arduino/hardware/tools/g++_arm_none_eabi/bin/../lib/gcc/arm-none-eabi/4.4.1/../../../../arm-none-eabi/lib/thumb2\libc.a(lib_a-isattyr.o)
 .debug_frame   0x00003208       0x2c c:/arduino/hardware/tools/g++_arm_none_eabi/bin/../lib/gcc/arm-none-eabi/4.4.1/../../../../arm-none-eabi/lib/thumb2\libc.a(lib_a-lseekr.o)
 .debug_frame   0x00003234       0x2c c:/arduino/hardware/tools/g++_arm_none_eabi/bin/../lib/gcc/arm-none-eabi/4.4.1/../../../../arm-none-eabi/lib/thumb2\libc.a(lib_a-readr.o)
 .debug_frame   0x00003260       0x20 c:/arduino/hardware/tools/g++_arm_none_eabi/bin/../lib/gcc/arm-none-eabi/4.4.1/thumb2\libgcc.a(_udivsi3.o)
 .debug_frame   0x00003280       0x50 c:/arduino/hardware/tools/g++_arm_none_eabi/bin/../lib/gcc/arm-none-eabi/4.4.1/thumb2\libgcc.a(bpabi.o)
 .debug_frame   0x000032d0       0x3c c:/arduino/hardware/tools/g++_arm_none_eabi/bin/../lib/gcc/arm-none-eabi/4.4.1/thumb2\libgcc.a(_divdi3.o)
 .debug_frame   0x0000330c       0x3c c:/arduino/hardware/tools/g++_arm_none_eabi/bin/../lib/gcc/arm-none-eabi/4.4.1/thumb2\libgcc.a(_udivdi3.o)

Cross Reference Table

Symbol                                            File
ADC_Handler                                       C:/Users/jon_000/Git/ALFRED_CORE/Release/arduino.ar(cortex_handlers.c.o)
                                                  C:/Arduino/hardware/arduino/sam/variants/arduino_due_x/libsam_sam3x8e_gcc_rel.a(startup_sam3xa.o)
Adafruit_PWMServoDriver::Adafruit_PWMServoDriver(unsigned char) ./Libraries/I2C_PWM_Servo_Driver/Adafruit_PWMServoDriver.cpp.o
Adafruit_PWMServoDriver::Adafruit_PWMServoDriver(unsigned char) ./Libraries/I2C_PWM_Servo_Driver/Adafruit_PWMServoDriver.cpp.o
                                                  ./ALFRED_CORE.cpp.o
Adafruit_PWMServoDriver::begin()                  ./Libraries/I2C_PWM_Servo_Driver/Adafruit_PWMServoDriver.cpp.o
                                                  ./ALFRED_CORE.cpp.o
Adafruit_PWMServoDriver::read8(unsigned char)     ./Libraries/I2C_PWM_Servo_Driver/Adafruit_PWMServoDriver.cpp.o
Adafruit_PWMServoDriver::reset()                  ./Libraries/I2C_PWM_Servo_Driver/Adafruit_PWMServoDriver.cpp.o
Adafruit_PWMServoDriver::setPWM(unsigned char, unsigned short, unsigned short) ./Libraries/I2C_PWM_Servo_Driver/Adafruit_PWMServoDriver.cpp.o
Adafruit_PWMServoDriver::setPWMFreq(float)        ./Libraries/I2C_PWM_Servo_Driver/Adafruit_PWMServoDriver.cpp.o
                                                  ./ALFRED_CORE.cpp.o
Adafruit_PWMServoDriver::write8(unsigned char, unsigned char) ./Libraries/I2C_PWM_Servo_Driver/Adafruit_PWMServoDriver.cpp.o
BusFault_Handler                                  C:/Users/jon_000/Git/ALFRED_CORE/Release/arduino.ar(cortex_handlers.c.o)
                                                  C:/Arduino/hardware/arduino/sam/variants/arduino_due_x/libsam_sam3x8e_gcc_rel.a(startup_sam3xa.o)
CAN0_Handler                                      C:/Users/jon_000/Git/ALFRED_CORE/Release/arduino.ar(cortex_handlers.c.o)
                                                  C:/Arduino/hardware/arduino/sam/variants/arduino_due_x/libsam_sam3x8e_gcc_rel.a(startup_sam3xa.o)
CAN1_Handler                                      C:/Users/jon_000/Git/ALFRED_CORE/Release/arduino.ar(cortex_handlers.c.o)
                                                  C:/Arduino/hardware/arduino/sam/variants/arduino_due_x/libsam_sam3x8e_gcc_rel.a(startup_sam3xa.o)
CDC_GetInterface(unsigned char*)                  C:/Users/jon_000/Git/ALFRED_CORE/Release/arduino.ar(CDC.cpp.o)
                                                  C:/Users/jon_000/Git/ALFRED_CORE/Release/arduino.ar(USBCore.cpp.o)
CDC_GetOtherInterface(unsigned char*)             C:/Users/jon_000/Git/ALFRED_CORE/Release/arduino.ar(CDC.cpp.o)
                                                  C:/Users/jon_000/Git/ALFRED_CORE/Release/arduino.ar(USBCore.cpp.o)
CDC_Setup(Setup&)                                 C:/Users/jon_000/Git/ALFRED_CORE/Release/arduino.ar(CDC.cpp.o)
                                                  C:/Users/jon_000/Git/ALFRED_CORE/Release/arduino.ar(USBCore.cpp.o)
DACC_Handler                                      C:/Users/jon_000/Git/ALFRED_CORE/Release/arduino.ar(cortex_handlers.c.o)
                                                  C:/Arduino/hardware/arduino/sam/variants/arduino_due_x/libsam_sam3x8e_gcc_rel.a(startup_sam3xa.o)
DMAC_Handler                                      C:/Users/jon_000/Git/ALFRED_CORE/Release/arduino.ar(cortex_handlers.c.o)
                                                  C:/Arduino/hardware/arduino/sam/variants/arduino_due_x/libsam_sam3x8e_gcc_rel.a(startup_sam3xa.o)
DebugMon_Handler                                  C:/Users/jon_000/Git/ALFRED_CORE/Release/arduino.ar(cortex_handlers.c.o)
                                                  C:/Arduino/hardware/arduino/sam/variants/arduino_due_x/libsam_sam3x8e_gcc_rel.a(startup_sam3xa.o)
DueTimer::DueTimer(int)                           ./Libraries/DueTimer/DueTimer.cpp.o
DueTimer::DueTimer(int)                           ./Libraries/DueTimer/DueTimer.cpp.o
DueTimer::Timers                                  ./Libraries/DueTimer/DueTimer.cpp.o
DueTimer::_frequency                              ./Libraries/DueTimer/DueTimer.cpp.o
DueTimer::attachInterrupt(void (*)())             ./Libraries/DueTimer/DueTimer.cpp.o
                                                  ./ALFRED_CORE.cpp.o
DueTimer::bestClock(double, unsigned long&)       ./Libraries/DueTimer/DueTimer.cpp.o
DueTimer::callbacks                               ./Libraries/DueTimer/DueTimer.cpp.o
DueTimer::detachInterrupt()                       ./Libraries/DueTimer/DueTimer.cpp.o
                                                  ./ALFRED_CORE.cpp.o
DueTimer::getAvailable()                          ./Libraries/DueTimer/DueTimer.cpp.o
DueTimer::getFrequency()                          ./Libraries/DueTimer/DueTimer.cpp.o
DueTimer::getPeriod()                             ./Libraries/DueTimer/DueTimer.cpp.o
DueTimer::setFrequency(double)                    ./Libraries/DueTimer/DueTimer.cpp.o
DueTimer::setPeriod(long)                         ./Libraries/DueTimer/DueTimer.cpp.o
DueTimer::start(long)                             ./Libraries/DueTimer/DueTimer.cpp.o
                                                  ./ALFRED_CORE.cpp.o
DueTimer::stop()                                  ./Libraries/DueTimer/DueTimer.cpp.o
                                                  ./ALFRED_CORE.cpp.o
EFC0_Handler                                      C:/Users/jon_000/Git/ALFRED_CORE/Release/arduino.ar(cortex_handlers.c.o)
                                                  C:/Arduino/hardware/arduino/sam/variants/arduino_due_x/libsam_sam3x8e_gcc_rel.a(startup_sam3xa.o)
EFC1_Handler                                      C:/Users/jon_000/Git/ALFRED_CORE/Release/arduino.ar(cortex_handlers.c.o)
                                                  C:/Arduino/hardware/arduino/sam/variants/arduino_due_x/libsam_sam3x8e_gcc_rel.a(startup_sam3xa.o)
EMAC_Handler                                      C:/Users/jon_000/Git/ALFRED_CORE/Release/arduino.ar(cortex_handlers.c.o)
                                                  C:/Arduino/hardware/arduino/sam/variants/arduino_due_x/libsam_sam3x8e_gcc_rel.a(startup_sam3xa.o)
GetTickCount                                      C:/Arduino/hardware/arduino/sam/variants/arduino_due_x/libsam_sam3x8e_gcc_rel.a(timetick.o)
                                                  C:/Users/jon_000/Git/ALFRED_CORE/Release/arduino.ar(wiring.c.o)
HID_GetDescriptor(int)                            C:/Users/jon_000/Git/ALFRED_CORE/Release/arduino.ar(HID.cpp.o)
                                                  C:/Users/jon_000/Git/ALFRED_CORE/Release/arduino.ar(USBCore.cpp.o)
HID_GetInterface(unsigned char*)                  C:/Users/jon_000/Git/ALFRED_CORE/Release/arduino.ar(HID.cpp.o)
                                                  C:/Users/jon_000/Git/ALFRED_CORE/Release/arduino.ar(USBCore.cpp.o)
HID_SendReport(unsigned char, void const*, unsigned long) C:/Users/jon_000/Git/ALFRED_CORE/Release/arduino.ar(HID.cpp.o)
HID_Setup(Setup&)                                 C:/Users/jon_000/Git/ALFRED_CORE/Release/arduino.ar(HID.cpp.o)
                                                  C:/Users/jon_000/Git/ALFRED_CORE/Release/arduino.ar(USBCore.cpp.o)
HSMCI_Handler                                     C:/Users/jon_000/Git/ALFRED_CORE/Release/arduino.ar(cortex_handlers.c.o)
                                                  C:/Arduino/hardware/arduino/sam/variants/arduino_due_x/libsam_sam3x8e_gcc_rel.a(startup_sam3xa.o)
HardFault_Handler                                 C:/Users/jon_000/Git/ALFRED_CORE/Release/arduino.ar(cortex_handlers.c.o)
                                                  C:/Arduino/hardware/arduino/sam/variants/arduino_due_x/libsam_sam3x8e_gcc_rel.a(startup_sam3xa.o)
Keyboard                                          C:/Users/jon_000/Git/ALFRED_CORE/Release/arduino.ar(HID.cpp.o)
Keyboard_::Keyboard_()                            C:/Users/jon_000/Git/ALFRED_CORE/Release/arduino.ar(HID.cpp.o)
Keyboard_::Keyboard_()                            C:/Users/jon_000/Git/ALFRED_CORE/Release/arduino.ar(HID.cpp.o)
Keyboard_::begin()                                C:/Users/jon_000/Git/ALFRED_CORE/Release/arduino.ar(HID.cpp.o)
Keyboard_::end()                                  C:/Users/jon_000/Git/ALFRED_CORE/Release/arduino.ar(HID.cpp.o)
Keyboard_::press(unsigned char)                   C:/Users/jon_000/Git/ALFRED_CORE/Release/arduino.ar(HID.cpp.o)
Keyboard_::release(unsigned char)                 C:/Users/jon_000/Git/ALFRED_CORE/Release/arduino.ar(HID.cpp.o)
Keyboard_::releaseAll()                           C:/Users/jon_000/Git/ALFRED_CORE/Release/arduino.ar(HID.cpp.o)
Keyboard_::sendReport(KeyReport*)                 C:/Users/jon_000/Git/ALFRED_CORE/Release/arduino.ar(HID.cpp.o)
Keyboard_::write(unsigned char)                   C:/Users/jon_000/Git/ALFRED_CORE/Release/arduino.ar(HID.cpp.o)
MemManage_Handler                                 C:/Users/jon_000/Git/ALFRED_CORE/Release/arduino.ar(cortex_handlers.c.o)
                                                  C:/Arduino/hardware/arduino/sam/variants/arduino_due_x/libsam_sam3x8e_gcc_rel.a(startup_sam3xa.o)
Mouse                                             C:/Users/jon_000/Git/ALFRED_CORE/Release/arduino.ar(HID.cpp.o)
Mouse_::Mouse_()                                  C:/Users/jon_000/Git/ALFRED_CORE/Release/arduino.ar(HID.cpp.o)
Mouse_::Mouse_()                                  C:/Users/jon_000/Git/ALFRED_CORE/Release/arduino.ar(HID.cpp.o)
Mouse_::begin()                                   C:/Users/jon_000/Git/ALFRED_CORE/Release/arduino.ar(HID.cpp.o)
Mouse_::buttons(unsigned char)                    C:/Users/jon_000/Git/ALFRED_CORE/Release/arduino.ar(HID.cpp.o)
Mouse_::click(unsigned char)                      C:/Users/jon_000/Git/ALFRED_CORE/Release/arduino.ar(HID.cpp.o)
Mouse_::end()                                     C:/Users/jon_000/Git/ALFRED_CORE/Release/arduino.ar(HID.cpp.o)
Mouse_::isPressed(unsigned char)                  C:/Users/jon_000/Git/ALFRED_CORE/Release/arduino.ar(HID.cpp.o)
Mouse_::move(signed char, signed char, signed char) C:/Users/jon_000/Git/ALFRED_CORE/Release/arduino.ar(HID.cpp.o)
Mouse_::press(unsigned char)                      C:/Users/jon_000/Git/ALFRED_CORE/Release/arduino.ar(HID.cpp.o)
Mouse_::release(unsigned char)                    C:/Users/jon_000/Git/ALFRED_CORE/Release/arduino.ar(HID.cpp.o)
NMI_Handler                                       C:/Users/jon_000/Git/ALFRED_CORE/Release/arduino.ar(cortex_handlers.c.o)
                                                  C:/Arduino/hardware/arduino/sam/variants/arduino_due_x/libsam_sam3x8e_gcc_rel.a(startup_sam3xa.o)
PIOA_Handler                                      C:/Users/jon_000/Git/ALFRED_CORE/Release/arduino.ar(WInterrupts.c.o)
                                                  C:/Arduino/hardware/arduino/sam/variants/arduino_due_x/libsam_sam3x8e_gcc_rel.a(startup_sam3xa.o)
PIOB_Handler                                      C:/Users/jon_000/Git/ALFRED_CORE/Release/arduino.ar(WInterrupts.c.o)
                                                  C:/Arduino/hardware/arduino/sam/variants/arduino_due_x/libsam_sam3x8e_gcc_rel.a(startup_sam3xa.o)
PIOC_Handler                                      C:/Users/jon_000/Git/ALFRED_CORE/Release/arduino.ar(WInterrupts.c.o)
                                                  C:/Arduino/hardware/arduino/sam/variants/arduino_due_x/libsam_sam3x8e_gcc_rel.a(startup_sam3xa.o)
PIOD_Handler                                      C:/Users/jon_000/Git/ALFRED_CORE/Release/arduino.ar(WInterrupts.c.o)
                                                  C:/Arduino/hardware/arduino/sam/variants/arduino_due_x/libsam_sam3x8e_gcc_rel.a(startup_sam3xa.o)
PIO_Clear                                         C:/Arduino/hardware/arduino/sam/variants/arduino_due_x/libsam_sam3x8e_gcc_rel.a(pio.o)
PIO_Configure                                     C:/Arduino/hardware/arduino/sam/variants/arduino_due_x/libsam_sam3x8e_gcc_rel.a(pio.o)
                                                  C:/Users/jon_000/Git/ALFRED_CORE/Release/arduino.ar(wiring_digital.c.o)
                                                  C:/Users/jon_000/Git/ALFRED_CORE/Release/arduino.ar(wiring_analog.c.o)
                                                  C:/Users/jon_000/Git/ALFRED_CORE/Release/arduino.ar(variant.cpp.o)
                                                  ./Libraries/Wire/Wire.cpp.o
PIO_DisableInterrupt                              C:/Arduino/hardware/arduino/sam/variants/arduino_due_x/libsam_sam3x8e_gcc_rel.a(pio.o)
PIO_Get                                           C:/Arduino/hardware/arduino/sam/variants/arduino_due_x/libsam_sam3x8e_gcc_rel.a(pio.o)
                                                  C:/Users/jon_000/Git/ALFRED_CORE/Release/arduino.ar(wiring_digital.c.o)
PIO_GetOutputDataStatus                           C:/Arduino/hardware/arduino/sam/variants/arduino_due_x/libsam_sam3x8e_gcc_rel.a(pio.o)
                                                  C:/Users/jon_000/Git/ALFRED_CORE/Release/arduino.ar(wiring_digital.c.o)
PIO_PullUp                                        C:/Arduino/hardware/arduino/sam/variants/arduino_due_x/libsam_sam3x8e_gcc_rel.a(pio.o)
                                                  C:/Users/jon_000/Git/ALFRED_CORE/Release/arduino.ar(wiring_digital.c.o)
PIO_Set                                           C:/Arduino/hardware/arduino/sam/variants/arduino_due_x/libsam_sam3x8e_gcc_rel.a(pio.o)
PIO_SetDebounceFilter                             C:/Arduino/hardware/arduino/sam/variants/arduino_due_x/libsam_sam3x8e_gcc_rel.a(pio.o)
PIO_SetInput                                      C:/Arduino/hardware/arduino/sam/variants/arduino_due_x/libsam_sam3x8e_gcc_rel.a(pio.o)
PIO_SetOutput                                     C:/Arduino/hardware/arduino/sam/variants/arduino_due_x/libsam_sam3x8e_gcc_rel.a(pio.o)
                                                  C:/Users/jon_000/Git/ALFRED_CORE/Release/arduino.ar(wiring_digital.c.o)
PIO_SetPeripheral                                 C:/Arduino/hardware/arduino/sam/variants/arduino_due_x/libsam_sam3x8e_gcc_rel.a(pio.o)
PMC_Handler                                       C:/Users/jon_000/Git/ALFRED_CORE/Release/arduino.ar(cortex_handlers.c.o)
                                                  C:/Arduino/hardware/arduino/sam/variants/arduino_due_x/libsam_sam3x8e_gcc_rel.a(startup_sam3xa.o)
PWMC_ConfigureChannel                             C:/Arduino/hardware/arduino/sam/variants/arduino_due_x/libsam_sam3x8e_gcc_rel.a(pwmc.o)
                                                  C:/Users/jon_000/Git/ALFRED_CORE/Release/arduino.ar(wiring_analog.c.o)
PWMC_ConfigureChannelExt                          C:/Arduino/hardware/arduino/sam/variants/arduino_due_x/libsam_sam3x8e_gcc_rel.a(pwmc.o)
PWMC_ConfigureClocks                              C:/Arduino/hardware/arduino/sam/variants/arduino_due_x/libsam_sam3x8e_gcc_rel.a(pwmc.o)
                                                  C:/Users/jon_000/Git/ALFRED_CORE/Release/arduino.ar(wiring_analog.c.o)
PWMC_ConfigureComparisonUnit                      C:/Arduino/hardware/arduino/sam/variants/arduino_due_x/libsam_sam3x8e_gcc_rel.a(pwmc.o)
PWMC_ConfigureEventLineMode                       C:/Arduino/hardware/arduino/sam/variants/arduino_due_x/libsam_sam3x8e_gcc_rel.a(pwmc.o)
PWMC_ConfigureSyncChannel                         C:/Arduino/hardware/arduino/sam/variants/arduino_due_x/libsam_sam3x8e_gcc_rel.a(pwmc.o)
PWMC_DisableChannel                               C:/Arduino/hardware/arduino/sam/variants/arduino_due_x/libsam_sam3x8e_gcc_rel.a(pwmc.o)
PWMC_DisableChannelIt                             C:/Arduino/hardware/arduino/sam/variants/arduino_due_x/libsam_sam3x8e_gcc_rel.a(pwmc.o)
PWMC_DisableIt                                    C:/Arduino/hardware/arduino/sam/variants/arduino_due_x/libsam_sam3x8e_gcc_rel.a(pwmc.o)
PWMC_DisableOverrideOutput                        C:/Arduino/hardware/arduino/sam/variants/arduino_due_x/libsam_sam3x8e_gcc_rel.a(pwmc.o)
PWMC_EnableChannel                                C:/Arduino/hardware/arduino/sam/variants/arduino_due_x/libsam_sam3x8e_gcc_rel.a(pwmc.o)
                                                  C:/Users/jon_000/Git/ALFRED_CORE/Release/arduino.ar(wiring_analog.c.o)
PWMC_EnableChannelIt                              C:/Arduino/hardware/arduino/sam/variants/arduino_due_x/libsam_sam3x8e_gcc_rel.a(pwmc.o)
PWMC_EnableFaultProtection                        C:/Arduino/hardware/arduino/sam/variants/arduino_due_x/libsam_sam3x8e_gcc_rel.a(pwmc.o)
PWMC_EnableIt                                     C:/Arduino/hardware/arduino/sam/variants/arduino_due_x/libsam_sam3x8e_gcc_rel.a(pwmc.o)
PWMC_EnableOverrideOutput                         C:/Arduino/hardware/arduino/sam/variants/arduino_due_x/libsam_sam3x8e_gcc_rel.a(pwmc.o)
PWMC_FaultClear                                   C:/Arduino/hardware/arduino/sam/variants/arduino_due_x/libsam_sam3x8e_gcc_rel.a(pwmc.o)
PWMC_SetDeadTime                                  C:/Arduino/hardware/arduino/sam/variants/arduino_due_x/libsam_sam3x8e_gcc_rel.a(pwmc.o)
PWMC_SetDutyCycle                                 C:/Arduino/hardware/arduino/sam/variants/arduino_due_x/libsam_sam3x8e_gcc_rel.a(pwmc.o)
                                                  C:/Users/jon_000/Git/ALFRED_CORE/Release/arduino.ar(wiring_analog.c.o)
PWMC_SetFaultMode                                 C:/Arduino/hardware/arduino/sam/variants/arduino_due_x/libsam_sam3x8e_gcc_rel.a(pwmc.o)
PWMC_SetFaultProtectionValue                      C:/Arduino/hardware/arduino/sam/variants/arduino_due_x/libsam_sam3x8e_gcc_rel.a(pwmc.o)
PWMC_SetOverrideValue                             C:/Arduino/hardware/arduino/sam/variants/arduino_due_x/libsam_sam3x8e_gcc_rel.a(pwmc.o)
PWMC_SetPeriod                                    C:/Arduino/hardware/arduino/sam/variants/arduino_due_x/libsam_sam3x8e_gcc_rel.a(pwmc.o)
                                                  C:/Users/jon_000/Git/ALFRED_CORE/Release/arduino.ar(wiring_analog.c.o)
PWMC_SetSyncChannelUpdatePeriod                   C:/Arduino/hardware/arduino/sam/variants/arduino_due_x/libsam_sam3x8e_gcc_rel.a(pwmc.o)
PWMC_SetSyncChannelUpdateUnlock                   C:/Arduino/hardware/arduino/sam/variants/arduino_due_x/libsam_sam3x8e_gcc_rel.a(pwmc.o)
PWMC_WriteBuffer                                  C:/Arduino/hardware/arduino/sam/variants/arduino_due_x/libsam_sam3x8e_gcc_rel.a(pwmc.o)
PWM_Handler                                       C:/Users/jon_000/Git/ALFRED_CORE/Release/arduino.ar(cortex_handlers.c.o)
                                                  C:/Arduino/hardware/arduino/sam/variants/arduino_due_x/libsam_sam3x8e_gcc_rel.a(startup_sam3xa.o)
PendSV_Handler                                    C:/Users/jon_000/Git/ALFRED_CORE/Release/arduino.ar(cortex_handlers.c.o)
                                                  C:/Arduino/hardware/arduino/sam/variants/arduino_due_x/libsam_sam3x8e_gcc_rel.a(startup_sam3xa.o)
Print::print(Printable const&)                    C:/Users/jon_000/Git/ALFRED_CORE/Release/arduino.ar(Print.cpp.o)
Print::print(String const&)                       C:/Users/jon_000/Git/ALFRED_CORE/Release/arduino.ar(Print.cpp.o)
Print::print(__FlashStringHelper const*)          C:/Users/jon_000/Git/ALFRED_CORE/Release/arduino.ar(Print.cpp.o)
Print::print(char const*)                         C:/Users/jon_000/Git/ALFRED_CORE/Release/arduino.ar(Print.cpp.o)
                                                  ./Libraries/I2C_PWM_Servo_Driver/Adafruit_PWMServoDriver.cpp.o
Print::print(char)                                C:/Users/jon_000/Git/ALFRED_CORE/Release/arduino.ar(Print.cpp.o)
Print::print(double, int)                         C:/Users/jon_000/Git/ALFRED_CORE/Release/arduino.ar(Print.cpp.o)
Print::print(int, int)                            C:/Users/jon_000/Git/ALFRED_CORE/Release/arduino.ar(Print.cpp.o)
Print::print(long, int)                           C:/Users/jon_000/Git/ALFRED_CORE/Release/arduino.ar(Print.cpp.o)
Print::print(unsigned char, int)                  C:/Users/jon_000/Git/ALFRED_CORE/Release/arduino.ar(Print.cpp.o)
Print::print(unsigned int, int)                   C:/Users/jon_000/Git/ALFRED_CORE/Release/arduino.ar(Print.cpp.o)
Print::print(unsigned long, int)                  C:/Users/jon_000/Git/ALFRED_CORE/Release/arduino.ar(Print.cpp.o)
Print::printFloat(double, unsigned char)          C:/Users/jon_000/Git/ALFRED_CORE/Release/arduino.ar(Print.cpp.o)
Print::printNumber(unsigned long, unsigned char)  C:/Users/jon_000/Git/ALFRED_CORE/Release/arduino.ar(Print.cpp.o)
Print::println()                                  C:/Users/jon_000/Git/ALFRED_CORE/Release/arduino.ar(Print.cpp.o)
Print::println(Printable const&)                  C:/Users/jon_000/Git/ALFRED_CORE/Release/arduino.ar(Print.cpp.o)
Print::println(String const&)                     C:/Users/jon_000/Git/ALFRED_CORE/Release/arduino.ar(Print.cpp.o)
Print::println(__FlashStringHelper const*)        C:/Users/jon_000/Git/ALFRED_CORE/Release/arduino.ar(Print.cpp.o)
Print::println(char const*)                       C:/Users/jon_000/Git/ALFRED_CORE/Release/arduino.ar(Print.cpp.o)
                                                  ./ALFRED_CORE.cpp.o
Print::println(char)                              C:/Users/jon_000/Git/ALFRED_CORE/Release/arduino.ar(Print.cpp.o)
Print::println(double, int)                       C:/Users/jon_000/Git/ALFRED_CORE/Release/arduino.ar(Print.cpp.o)
                                                  ./Libraries/I2C_PWM_Servo_Driver/Adafruit_PWMServoDriver.cpp.o
Print::println(int, int)                          C:/Users/jon_000/Git/ALFRED_CORE/Release/arduino.ar(Print.cpp.o)
                                                  ./ALFRED_CORE.cpp.o
Print::println(long, int)                         C:/Users/jon_000/Git/ALFRED_CORE/Release/arduino.ar(Print.cpp.o)
Print::println(unsigned char, int)                C:/Users/jon_000/Git/ALFRED_CORE/Release/arduino.ar(Print.cpp.o)
                                                  ./Libraries/I2C_PWM_Servo_Driver/Adafruit_PWMServoDriver.cpp.o
Print::println(unsigned int, int)                 C:/Users/jon_000/Git/ALFRED_CORE/Release/arduino.ar(Print.cpp.o)
Print::println(unsigned long, int)                C:/Users/jon_000/Git/ALFRED_CORE/Release/arduino.ar(Print.cpp.o)
Print::write(char const*)                         C:/Users/jon_000/Git/ALFRED_CORE/Release/arduino.ar(Print.cpp.o)
Print::write(unsigned char const*, unsigned int)  C:/Users/jon_000/Git/ALFRED_CORE/Release/arduino.ar(Print.cpp.o)
                                                  C:/Users/jon_000/Git/ALFRED_CORE/Release/arduino.ar(HID.cpp.o)
                                                  C:/Users/jon_000/Git/ALFRED_CORE/Release/arduino.ar(CDC.cpp.o)
                                                  C:/Users/jon_000/Git/ALFRED_CORE/Release/arduino.ar(USARTClass.cpp.o)
                                                  C:/Users/jon_000/Git/ALFRED_CORE/Release/arduino.ar(UARTClass.cpp.o)
                                                  ./Libraries/Wire/Wire.cpp.o
RSTC_Handler                                      C:/Users/jon_000/Git/ALFRED_CORE/Release/arduino.ar(cortex_handlers.c.o)
                                                  C:/Arduino/hardware/arduino/sam/variants/arduino_due_x/libsam_sam3x8e_gcc_rel.a(startup_sam3xa.o)
RTC_Handler                                       C:/Users/jon_000/Git/ALFRED_CORE/Release/arduino.ar(cortex_handlers.c.o)
                                                  C:/Arduino/hardware/arduino/sam/variants/arduino_due_x/libsam_sam3x8e_gcc_rel.a(startup_sam3xa.o)
RTT_Handler                                       C:/Users/jon_000/Git/ALFRED_CORE/Release/arduino.ar(cortex_handlers.c.o)
                                                  C:/Arduino/hardware/arduino/sam/variants/arduino_due_x/libsam_sam3x8e_gcc_rel.a(startup_sam3xa.o)
Reset_Handler                                     C:/Arduino/hardware/arduino/sam/variants/arduino_due_x/libsam_sam3x8e_gcc_rel.a(startup_sam3xa.o)
RingBuffer::RingBuffer()                          C:/Users/jon_000/Git/ALFRED_CORE/Release/arduino.ar(RingBuffer.cpp.o)
                                                  C:/Users/jon_000/Git/ALFRED_CORE/Release/arduino.ar(variant.cpp.o)
RingBuffer::RingBuffer()                          C:/Users/jon_000/Git/ALFRED_CORE/Release/arduino.ar(RingBuffer.cpp.o)
RingBuffer::store_char(unsigned char)             C:/Users/jon_000/Git/ALFRED_CORE/Release/arduino.ar(RingBuffer.cpp.o)
                                                  C:/Users/jon_000/Git/ALFRED_CORE/Release/arduino.ar(USARTClass.cpp.o)
                                                  C:/Users/jon_000/Git/ALFRED_CORE/Release/arduino.ar(UARTClass.cpp.o)
RxLEDPulse                                        C:/Users/jon_000/Git/ALFRED_CORE/Release/arduino.ar(USBCore.cpp.o)
SMC_Handler                                       C:/Users/jon_000/Git/ALFRED_CORE/Release/arduino.ar(cortex_handlers.c.o)
                                                  C:/Arduino/hardware/arduino/sam/variants/arduino_due_x/libsam_sam3x8e_gcc_rel.a(startup_sam3xa.o)
SPI0_Handler                                      C:/Users/jon_000/Git/ALFRED_CORE/Release/arduino.ar(cortex_handlers.c.o)
                                                  C:/Arduino/hardware/arduino/sam/variants/arduino_due_x/libsam_sam3x8e_gcc_rel.a(startup_sam3xa.o)
SSC_Handler                                       C:/Users/jon_000/Git/ALFRED_CORE/Release/arduino.ar(cortex_handlers.c.o)
                                                  C:/Arduino/hardware/arduino/sam/variants/arduino_due_x/libsam_sam3x8e_gcc_rel.a(startup_sam3xa.o)
STRING_LANGUAGE                                   C:/Users/jon_000/Git/ALFRED_CORE/Release/arduino.ar(USBCore.cpp.o)
STRING_MANUFACTURER                               C:/Users/jon_000/Git/ALFRED_CORE/Release/arduino.ar(USBCore.cpp.o)
STRING_PRODUCT                                    C:/Users/jon_000/Git/ALFRED_CORE/Release/arduino.ar(USBCore.cpp.o)
SUPC_Handler                                      C:/Users/jon_000/Git/ALFRED_CORE/Release/arduino.ar(cortex_handlers.c.o)
                                                  C:/Arduino/hardware/arduino/sam/variants/arduino_due_x/libsam_sam3x8e_gcc_rel.a(startup_sam3xa.o)
SVC_Handler                                       C:/Users/jon_000/Git/ALFRED_CORE/Release/arduino.ar(cortex_handlers.c.o)
                                                  C:/Arduino/hardware/arduino/sam/variants/arduino_due_x/libsam_sam3x8e_gcc_rel.a(startup_sam3xa.o)
Serial                                            C:/Users/jon_000/Git/ALFRED_CORE/Release/arduino.ar(variant.cpp.o)
                                                  ./Libraries/I2C_PWM_Servo_Driver/Adafruit_PWMServoDriver.cpp.o
                                                  ./ALFRED_CORE.cpp.o
Serial1                                           C:/Users/jon_000/Git/ALFRED_CORE/Release/arduino.ar(variant.cpp.o)
                                                  ./ALFRED_CORE.cpp.o
Serial2                                           C:/Users/jon_000/Git/ALFRED_CORE/Release/arduino.ar(variant.cpp.o)
Serial3                                           C:/Users/jon_000/Git/ALFRED_CORE/Release/arduino.ar(variant.cpp.o)
SerialUSB                                         C:/Users/jon_000/Git/ALFRED_CORE/Release/arduino.ar(CDC.cpp.o)
                                                  C:/Users/jon_000/Git/ALFRED_CORE/Release/arduino.ar(USBCore.cpp.o)
Serial_::accept()                                 C:/Users/jon_000/Git/ALFRED_CORE/Release/arduino.ar(CDC.cpp.o)
                                                  C:/Users/jon_000/Git/ALFRED_CORE/Release/arduino.ar(USBCore.cpp.o)
Serial_::available()                              C:/Users/jon_000/Git/ALFRED_CORE/Release/arduino.ar(CDC.cpp.o)
Serial_::begin(unsigned long)                     C:/Users/jon_000/Git/ALFRED_CORE/Release/arduino.ar(CDC.cpp.o)
Serial_::begin(unsigned long, unsigned char)      C:/Users/jon_000/Git/ALFRED_CORE/Release/arduino.ar(CDC.cpp.o)
Serial_::end()                                    C:/Users/jon_000/Git/ALFRED_CORE/Release/arduino.ar(CDC.cpp.o)
Serial_::flush()                                  C:/Users/jon_000/Git/ALFRED_CORE/Release/arduino.ar(CDC.cpp.o)
Serial_::operator bool()                          C:/Users/jon_000/Git/ALFRED_CORE/Release/arduino.ar(CDC.cpp.o)
Serial_::peek()                                   C:/Users/jon_000/Git/ALFRED_CORE/Release/arduino.ar(CDC.cpp.o)
Serial_::read()                                   C:/Users/jon_000/Git/ALFRED_CORE/Release/arduino.ar(CDC.cpp.o)
Serial_::write(unsigned char const*, unsigned int) C:/Users/jon_000/Git/ALFRED_CORE/Release/arduino.ar(CDC.cpp.o)
Serial_::write(unsigned char)                     C:/Users/jon_000/Git/ALFRED_CORE/Release/arduino.ar(CDC.cpp.o)
Sleep                                             C:/Arduino/hardware/arduino/sam/variants/arduino_due_x/libsam_sam3x8e_gcc_rel.a(timetick.o)
Stream::find(char*)                               C:/Users/jon_000/Git/ALFRED_CORE/Release/arduino.ar(Stream.cpp.o)
Stream::find(char*, unsigned int)                 C:/Users/jon_000/Git/ALFRED_CORE/Release/arduino.ar(Stream.cpp.o)
Stream::findUntil(char*, char*)                   C:/Users/jon_000/Git/ALFRED_CORE/Release/arduino.ar(Stream.cpp.o)
Stream::findUntil(char*, unsigned int, char*, unsigned int) C:/Users/jon_000/Git/ALFRED_CORE/Release/arduino.ar(Stream.cpp.o)
Stream::parseFloat()                              C:/Users/jon_000/Git/ALFRED_CORE/Release/arduino.ar(Stream.cpp.o)
Stream::parseFloat(char)                          C:/Users/jon_000/Git/ALFRED_CORE/Release/arduino.ar(Stream.cpp.o)
Stream::parseInt()                                C:/Users/jon_000/Git/ALFRED_CORE/Release/arduino.ar(Stream.cpp.o)
Stream::parseInt(char)                            C:/Users/jon_000/Git/ALFRED_CORE/Release/arduino.ar(Stream.cpp.o)
Stream::peekNextDigit()                           C:/Users/jon_000/Git/ALFRED_CORE/Release/arduino.ar(Stream.cpp.o)
Stream::readBytes(char*, unsigned int)            C:/Users/jon_000/Git/ALFRED_CORE/Release/arduino.ar(Stream.cpp.o)
Stream::readBytesUntil(char, char*, unsigned int) C:/Users/jon_000/Git/ALFRED_CORE/Release/arduino.ar(Stream.cpp.o)
                                                  ./ALFRED_CORE.cpp.o
Stream::readString()                              C:/Users/jon_000/Git/ALFRED_CORE/Release/arduino.ar(Stream.cpp.o)
Stream::readStringUntil(char)                     C:/Users/jon_000/Git/ALFRED_CORE/Release/arduino.ar(Stream.cpp.o)
Stream::setTimeout(unsigned long)                 C:/Users/jon_000/Git/ALFRED_CORE/Release/arduino.ar(Stream.cpp.o)
Stream::timedPeek()                               C:/Users/jon_000/Git/ALFRED_CORE/Release/arduino.ar(Stream.cpp.o)
Stream::timedRead()                               C:/Users/jon_000/Git/ALFRED_CORE/Release/arduino.ar(Stream.cpp.o)
String::String(String const&)                     C:/Users/jon_000/Git/ALFRED_CORE/Release/arduino.ar(WString.cpp.o)
String::String(String const&)                     C:/Users/jon_000/Git/ALFRED_CORE/Release/arduino.ar(WString.cpp.o)
String::String(__FlashStringHelper const*)        C:/Users/jon_000/Git/ALFRED_CORE/Release/arduino.ar(WString.cpp.o)
String::String(__FlashStringHelper const*)        C:/Users/jon_000/Git/ALFRED_CORE/Release/arduino.ar(WString.cpp.o)
String::String(char const*)                       C:/Users/jon_000/Git/ALFRED_CORE/Release/arduino.ar(WString.cpp.o)
                                                  C:/Users/jon_000/Git/ALFRED_CORE/Release/arduino.ar(Stream.cpp.o)
String::String(char const*)                       C:/Users/jon_000/Git/ALFRED_CORE/Release/arduino.ar(WString.cpp.o)
String::String(char)                              C:/Users/jon_000/Git/ALFRED_CORE/Release/arduino.ar(WString.cpp.o)
String::String(char)                              C:/Users/jon_000/Git/ALFRED_CORE/Release/arduino.ar(WString.cpp.o)
String::String(double, unsigned char)             C:/Users/jon_000/Git/ALFRED_CORE/Release/arduino.ar(WString.cpp.o)
String::String(double, unsigned char)             C:/Users/jon_000/Git/ALFRED_CORE/Release/arduino.ar(WString.cpp.o)
String::String(float, unsigned char)              C:/Users/jon_000/Git/ALFRED_CORE/Release/arduino.ar(WString.cpp.o)
String::String(float, unsigned char)              C:/Users/jon_000/Git/ALFRED_CORE/Release/arduino.ar(WString.cpp.o)
String::String(int, unsigned char)                C:/Users/jon_000/Git/ALFRED_CORE/Release/arduino.ar(WString.cpp.o)
String::String(int, unsigned char)                C:/Users/jon_000/Git/ALFRED_CORE/Release/arduino.ar(WString.cpp.o)
String::String(long, unsigned char)               C:/Users/jon_000/Git/ALFRED_CORE/Release/arduino.ar(WString.cpp.o)
String::String(long, unsigned char)               C:/Users/jon_000/Git/ALFRED_CORE/Release/arduino.ar(WString.cpp.o)
String::String(unsigned char, unsigned char)      C:/Users/jon_000/Git/ALFRED_CORE/Release/arduino.ar(WString.cpp.o)
String::String(unsigned char, unsigned char)      C:/Users/jon_000/Git/ALFRED_CORE/Release/arduino.ar(WString.cpp.o)
String::String(unsigned int, unsigned char)       C:/Users/jon_000/Git/ALFRED_CORE/Release/arduino.ar(WString.cpp.o)
String::String(unsigned int, unsigned char)       C:/Users/jon_000/Git/ALFRED_CORE/Release/arduino.ar(WString.cpp.o)
String::String(unsigned long, unsigned char)      C:/Users/jon_000/Git/ALFRED_CORE/Release/arduino.ar(WString.cpp.o)
String::String(unsigned long, unsigned char)      C:/Users/jon_000/Git/ALFRED_CORE/Release/arduino.ar(WString.cpp.o)
String::changeBuffer(unsigned int)                C:/Users/jon_000/Git/ALFRED_CORE/Release/arduino.ar(WString.cpp.o)
String::charAt(unsigned int) const                C:/Users/jon_000/Git/ALFRED_CORE/Release/arduino.ar(WString.cpp.o)
String::compareTo(String const&) const            C:/Users/jon_000/Git/ALFRED_CORE/Release/arduino.ar(WString.cpp.o)
String::concat(String const&)                     C:/Users/jon_000/Git/ALFRED_CORE/Release/arduino.ar(WString.cpp.o)
String::concat(__FlashStringHelper const*)        C:/Users/jon_000/Git/ALFRED_CORE/Release/arduino.ar(WString.cpp.o)
String::concat(char const*)                       C:/Users/jon_000/Git/ALFRED_CORE/Release/arduino.ar(WString.cpp.o)
String::concat(char const*, unsigned int)         C:/Users/jon_000/Git/ALFRED_CORE/Release/arduino.ar(WString.cpp.o)
String::concat(char)                              C:/Users/jon_000/Git/ALFRED_CORE/Release/arduino.ar(WString.cpp.o)
                                                  C:/Users/jon_000/Git/ALFRED_CORE/Release/arduino.ar(Stream.cpp.o)
String::concat(double)                            C:/Users/jon_000/Git/ALFRED_CORE/Release/arduino.ar(WString.cpp.o)
String::concat(float)                             C:/Users/jon_000/Git/ALFRED_CORE/Release/arduino.ar(WString.cpp.o)
String::concat(int)                               C:/Users/jon_000/Git/ALFRED_CORE/Release/arduino.ar(WString.cpp.o)
String::concat(long)                              C:/Users/jon_000/Git/ALFRED_CORE/Release/arduino.ar(WString.cpp.o)
String::concat(unsigned char)                     C:/Users/jon_000/Git/ALFRED_CORE/Release/arduino.ar(WString.cpp.o)
String::concat(unsigned int)                      C:/Users/jon_000/Git/ALFRED_CORE/Release/arduino.ar(WString.cpp.o)
String::concat(unsigned long)                     C:/Users/jon_000/Git/ALFRED_CORE/Release/arduino.ar(WString.cpp.o)
String::copy(__FlashStringHelper const*, unsigned int) C:/Users/jon_000/Git/ALFRED_CORE/Release/arduino.ar(WString.cpp.o)
String::copy(char const*, unsigned int)           C:/Users/jon_000/Git/ALFRED_CORE/Release/arduino.ar(WString.cpp.o)
String::endsWith(String const&) const             C:/Users/jon_000/Git/ALFRED_CORE/Release/arduino.ar(WString.cpp.o)
String::equals(String const&) const               C:/Users/jon_000/Git/ALFRED_CORE/Release/arduino.ar(WString.cpp.o)
String::equals(char const*) const                 C:/Users/jon_000/Git/ALFRED_CORE/Release/arduino.ar(WString.cpp.o)
String::equalsIgnoreCase(String const&) const     C:/Users/jon_000/Git/ALFRED_CORE/Release/arduino.ar(WString.cpp.o)
String::getBytes(unsigned char*, unsigned int, unsigned int) const C:/Users/jon_000/Git/ALFRED_CORE/Release/arduino.ar(WString.cpp.o)
String::indexOf(String const&) const              C:/Users/jon_000/Git/ALFRED_CORE/Release/arduino.ar(WString.cpp.o)
String::indexOf(String const&, unsigned int) const C:/Users/jon_000/Git/ALFRED_CORE/Release/arduino.ar(WString.cpp.o)
String::indexOf(char) const                       C:/Users/jon_000/Git/ALFRED_CORE/Release/arduino.ar(WString.cpp.o)
String::indexOf(char, unsigned int) const         C:/Users/jon_000/Git/ALFRED_CORE/Release/arduino.ar(WString.cpp.o)
String::invalidate()                              C:/Users/jon_000/Git/ALFRED_CORE/Release/arduino.ar(WString.cpp.o)
String::lastIndexOf(String const&) const          C:/Users/jon_000/Git/ALFRED_CORE/Release/arduino.ar(WString.cpp.o)
String::lastIndexOf(String const&, unsigned int) const C:/Users/jon_000/Git/ALFRED_CORE/Release/arduino.ar(WString.cpp.o)
String::lastIndexOf(char) const                   C:/Users/jon_000/Git/ALFRED_CORE/Release/arduino.ar(WString.cpp.o)
String::lastIndexOf(char, unsigned int) const     C:/Users/jon_000/Git/ALFRED_CORE/Release/arduino.ar(WString.cpp.o)
String::operator<(String const&) const            C:/Users/jon_000/Git/ALFRED_CORE/Release/arduino.ar(WString.cpp.o)
String::operator<=(String const&) const           C:/Users/jon_000/Git/ALFRED_CORE/Release/arduino.ar(WString.cpp.o)
String::operator=(String const&)                  C:/Users/jon_000/Git/ALFRED_CORE/Release/arduino.ar(WString.cpp.o)
String::operator=(__FlashStringHelper const*)     C:/Users/jon_000/Git/ALFRED_CORE/Release/arduino.ar(WString.cpp.o)
String::operator=(char const*)                    C:/Users/jon_000/Git/ALFRED_CORE/Release/arduino.ar(WString.cpp.o)
String::operator>(String const&) const            C:/Users/jon_000/Git/ALFRED_CORE/Release/arduino.ar(WString.cpp.o)
String::operator>=(String const&) const           C:/Users/jon_000/Git/ALFRED_CORE/Release/arduino.ar(WString.cpp.o)
String::operator[](unsigned int)                  C:/Users/jon_000/Git/ALFRED_CORE/Release/arduino.ar(WString.cpp.o)
String::operator[](unsigned int) const            C:/Users/jon_000/Git/ALFRED_CORE/Release/arduino.ar(WString.cpp.o)
                                                  C:/Users/jon_000/Git/ALFRED_CORE/Release/arduino.ar(Print.cpp.o)
String::remove(unsigned int)                      C:/Users/jon_000/Git/ALFRED_CORE/Release/arduino.ar(WString.cpp.o)
String::remove(unsigned int, unsigned int)        C:/Users/jon_000/Git/ALFRED_CORE/Release/arduino.ar(WString.cpp.o)
String::replace(String const&, String const&)     C:/Users/jon_000/Git/ALFRED_CORE/Release/arduino.ar(WString.cpp.o)
String::replace(char, char)                       C:/Users/jon_000/Git/ALFRED_CORE/Release/arduino.ar(WString.cpp.o)
String::reserve(unsigned int)                     C:/Users/jon_000/Git/ALFRED_CORE/Release/arduino.ar(WString.cpp.o)
String::setCharAt(unsigned int, char)             C:/Users/jon_000/Git/ALFRED_CORE/Release/arduino.ar(WString.cpp.o)
String::startsWith(String const&) const           C:/Users/jon_000/Git/ALFRED_CORE/Release/arduino.ar(WString.cpp.o)
String::startsWith(String const&, unsigned int) const C:/Users/jon_000/Git/ALFRED_CORE/Release/arduino.ar(WString.cpp.o)
String::substring(unsigned int, unsigned int) const C:/Users/jon_000/Git/ALFRED_CORE/Release/arduino.ar(WString.cpp.o)
String::toFloat() const                           C:/Users/jon_000/Git/ALFRED_CORE/Release/arduino.ar(WString.cpp.o)
String::toInt() const                             C:/Users/jon_000/Git/ALFRED_CORE/Release/arduino.ar(WString.cpp.o)
String::toLowerCase()                             C:/Users/jon_000/Git/ALFRED_CORE/Release/arduino.ar(WString.cpp.o)
String::toUpperCase()                             C:/Users/jon_000/Git/ALFRED_CORE/Release/arduino.ar(WString.cpp.o)
String::trim()                                    C:/Users/jon_000/Git/ALFRED_CORE/Release/arduino.ar(WString.cpp.o)
String::~String()                                 C:/Users/jon_000/Git/ALFRED_CORE/Release/arduino.ar(WString.cpp.o)
String::~String()                                 C:/Users/jon_000/Git/ALFRED_CORE/Release/arduino.ar(WString.cpp.o)
SysTick_Handler                                   C:/Users/jon_000/Git/ALFRED_CORE/Release/arduino.ar(cortex_handlers.c.o)
                                                  C:/Arduino/hardware/arduino/sam/variants/arduino_due_x/libsam_sam3x8e_gcc_rel.a(startup_sam3xa.o)
SystemCoreClock                                   C:/Arduino/hardware/arduino/sam/variants/arduino_due_x/libsam_sam3x8e_gcc_rel.a(system_sam3xa.o)
                                                  C:/Users/jon_000/Git/ALFRED_CORE/Release/arduino.ar(USARTClass.cpp.o)
                                                  C:/Users/jon_000/Git/ALFRED_CORE/Release/arduino.ar(UARTClass.cpp.o)
                                                  C:/Users/jon_000/Git/ALFRED_CORE/Release/arduino.ar(variant.cpp.o)
SystemCoreClockUpdate                             C:/Arduino/hardware/arduino/sam/variants/arduino_due_x/libsam_sam3x8e_gcc_rel.a(system_sam3xa.o)
SystemInit                                        C:/Arduino/hardware/arduino/sam/variants/arduino_due_x/libsam_sam3x8e_gcc_rel.a(system_sam3xa.o)
                                                  C:/Users/jon_000/Git/ALFRED_CORE/Release/arduino.ar(variant.cpp.o)
TC0_Handler                                       ./Libraries/DueTimer/DueTimer.cpp.o
                                                  C:/Arduino/hardware/arduino/sam/variants/arduino_due_x/libsam_sam3x8e_gcc_rel.a(startup_sam3xa.o)
TC1_Handler                                       ./Libraries/DueTimer/DueTimer.cpp.o
                                                  C:/Arduino/hardware/arduino/sam/variants/arduino_due_x/libsam_sam3x8e_gcc_rel.a(startup_sam3xa.o)
TC2_Handler                                       ./Libraries/DueTimer/DueTimer.cpp.o
                                                  C:/Arduino/hardware/arduino/sam/variants/arduino_due_x/libsam_sam3x8e_gcc_rel.a(startup_sam3xa.o)
TC3_Handler                                       ./Libraries/DueTimer/DueTimer.cpp.o
                                                  C:/Arduino/hardware/arduino/sam/variants/arduino_due_x/libsam_sam3x8e_gcc_rel.a(startup_sam3xa.o)
TC4_Handler                                       ./Libraries/DueTimer/DueTimer.cpp.o
                                                  C:/Arduino/hardware/arduino/sam/variants/arduino_due_x/libsam_sam3x8e_gcc_rel.a(startup_sam3xa.o)
TC5_Handler                                       ./Libraries/DueTimer/DueTimer.cpp.o
                                                  C:/Arduino/hardware/arduino/sam/variants/arduino_due_x/libsam_sam3x8e_gcc_rel.a(startup_sam3xa.o)
TC6_Handler                                       ./Libraries/DueTimer/DueTimer.cpp.o
                                                  C:/Arduino/hardware/arduino/sam/variants/arduino_due_x/libsam_sam3x8e_gcc_rel.a(startup_sam3xa.o)
TC7_Handler                                       ./Libraries/DueTimer/DueTimer.cpp.o
                                                  C:/Arduino/hardware/arduino/sam/variants/arduino_due_x/libsam_sam3x8e_gcc_rel.a(startup_sam3xa.o)
TC8_Handler                                       ./Libraries/DueTimer/DueTimer.cpp.o
                                                  C:/Arduino/hardware/arduino/sam/variants/arduino_due_x/libsam_sam3x8e_gcc_rel.a(startup_sam3xa.o)
TC_Configure                                      C:/Arduino/hardware/arduino/sam/variants/arduino_due_x/libsam_sam3x8e_gcc_rel.a(tc.o)
                                                  C:/Users/jon_000/Git/ALFRED_CORE/Release/arduino.ar(wiring_analog.c.o)
                                                  ./Libraries/DueTimer/DueTimer.cpp.o
TC_FindMckDivisor                                 C:/Arduino/hardware/arduino/sam/variants/arduino_due_x/libsam_sam3x8e_gcc_rel.a(tc.o)
TC_GetStatus                                      C:/Arduino/hardware/arduino/sam/variants/arduino_due_x/libsam_sam3x8e_gcc_rel.a(tc.o)
                                                  ./Libraries/DueTimer/DueTimer.cpp.o
TC_ReadCV                                         C:/Arduino/hardware/arduino/sam/variants/arduino_due_x/libsam_sam3x8e_gcc_rel.a(tc.o)
TC_SetRA                                          C:/Arduino/hardware/arduino/sam/variants/arduino_due_x/libsam_sam3x8e_gcc_rel.a(tc.o)
                                                  C:/Users/jon_000/Git/ALFRED_CORE/Release/arduino.ar(wiring_analog.c.o)
TC_SetRB                                          C:/Arduino/hardware/arduino/sam/variants/arduino_due_x/libsam_sam3x8e_gcc_rel.a(tc.o)
                                                  C:/Users/jon_000/Git/ALFRED_CORE/Release/arduino.ar(wiring_analog.c.o)
TC_SetRC                                          C:/Arduino/hardware/arduino/sam/variants/arduino_due_x/libsam_sam3x8e_gcc_rel.a(tc.o)
                                                  C:/Users/jon_000/Git/ALFRED_CORE/Release/arduino.ar(wiring_analog.c.o)
                                                  ./Libraries/DueTimer/DueTimer.cpp.o
TC_Start                                          C:/Arduino/hardware/arduino/sam/variants/arduino_due_x/libsam_sam3x8e_gcc_rel.a(tc.o)
                                                  C:/Users/jon_000/Git/ALFRED_CORE/Release/arduino.ar(wiring_analog.c.o)
                                                  ./Libraries/DueTimer/DueTimer.cpp.o
TC_Stop                                           C:/Arduino/hardware/arduino/sam/variants/arduino_due_x/libsam_sam3x8e_gcc_rel.a(tc.o)
                                                  ./Libraries/DueTimer/DueTimer.cpp.o
TRNG_Handler                                      C:/Users/jon_000/Git/ALFRED_CORE/Release/arduino.ar(cortex_handlers.c.o)
                                                  C:/Arduino/hardware/arduino/sam/variants/arduino_due_x/libsam_sam3x8e_gcc_rel.a(startup_sam3xa.o)
TWI0_Handler                                      ./Libraries/Wire/Wire.cpp.o
                                                  C:/Arduino/hardware/arduino/sam/variants/arduino_due_x/libsam_sam3x8e_gcc_rel.a(startup_sam3xa.o)
TWI1_Handler                                      ./Libraries/Wire/Wire.cpp.o
                                                  C:/Arduino/hardware/arduino/sam/variants/arduino_due_x/libsam_sam3x8e_gcc_rel.a(startup_sam3xa.o)
TWI_ByteReceived                                  C:/Arduino/hardware/arduino/sam/variants/arduino_due_x/libsam_sam3x8e_gcc_rel.a(twi.o)
                                                  ./Libraries/Wire/Wire.cpp.o
TWI_ByteSent                                      C:/Arduino/hardware/arduino/sam/variants/arduino_due_x/libsam_sam3x8e_gcc_rel.a(twi.o)
                                                  ./Libraries/Wire/Wire.cpp.o
TWI_ConfigureMaster                               C:/Arduino/hardware/arduino/sam/variants/arduino_due_x/libsam_sam3x8e_gcc_rel.a(twi.o)
                                                  ./Libraries/Wire/Wire.cpp.o
TWI_ConfigureSlave                                C:/Arduino/hardware/arduino/sam/variants/arduino_due_x/libsam_sam3x8e_gcc_rel.a(twi.o)
                                                  ./Libraries/Wire/Wire.cpp.o
TWI_DisableIt                                     C:/Arduino/hardware/arduino/sam/variants/arduino_due_x/libsam_sam3x8e_gcc_rel.a(twi.o)
                                                  ./Libraries/Wire/Wire.cpp.o
TWI_EnableIt                                      C:/Arduino/hardware/arduino/sam/variants/arduino_due_x/libsam_sam3x8e_gcc_rel.a(twi.o)
                                                  ./Libraries/Wire/Wire.cpp.o
TWI_GetMaskedStatus                               C:/Arduino/hardware/arduino/sam/variants/arduino_due_x/libsam_sam3x8e_gcc_rel.a(twi.o)
TWI_GetStatus                                     C:/Arduino/hardware/arduino/sam/variants/arduino_due_x/libsam_sam3x8e_gcc_rel.a(twi.o)
                                                  ./Libraries/Wire/Wire.cpp.o
TWI_ReadByte                                      C:/Arduino/hardware/arduino/sam/variants/arduino_due_x/libsam_sam3x8e_gcc_rel.a(twi.o)
                                                  ./Libraries/Wire/Wire.cpp.o
TWI_SendSTOPCondition                             C:/Arduino/hardware/arduino/sam/variants/arduino_due_x/libsam_sam3x8e_gcc_rel.a(twi.o)
                                                  ./Libraries/Wire/Wire.cpp.o
TWI_StartRead                                     C:/Arduino/hardware/arduino/sam/variants/arduino_due_x/libsam_sam3x8e_gcc_rel.a(twi.o)
                                                  ./Libraries/Wire/Wire.cpp.o
TWI_StartWrite                                    C:/Arduino/hardware/arduino/sam/variants/arduino_due_x/libsam_sam3x8e_gcc_rel.a(twi.o)
                                                  ./Libraries/Wire/Wire.cpp.o
TWI_Stop                                          C:/Arduino/hardware/arduino/sam/variants/arduino_due_x/libsam_sam3x8e_gcc_rel.a(twi.o)
                                                  ./Libraries/Wire/Wire.cpp.o
TWI_TransferComplete                              C:/Arduino/hardware/arduino/sam/variants/arduino_due_x/libsam_sam3x8e_gcc_rel.a(twi.o)
                                                  ./Libraries/Wire/Wire.cpp.o
TWI_WriteByte                                     C:/Arduino/hardware/arduino/sam/variants/arduino_due_x/libsam_sam3x8e_gcc_rel.a(twi.o)
                                                  ./Libraries/Wire/Wire.cpp.o
TimeTick_Configure                                C:/Arduino/hardware/arduino/sam/variants/arduino_due_x/libsam_sam3x8e_gcc_rel.a(timetick.o)
TimeTick_Increment                                C:/Arduino/hardware/arduino/sam/variants/arduino_due_x/libsam_sam3x8e_gcc_rel.a(timetick.o)
                                                  C:/Users/jon_000/Git/ALFRED_CORE/Release/arduino.ar(cortex_handlers.c.o)
Timer                                             ./Libraries/DueTimer/DueTimer.cpp.o
Timer0                                            ./Libraries/DueTimer/DueTimer.cpp.o
Timer1                                            ./Libraries/DueTimer/DueTimer.cpp.o
Timer2                                            ./Libraries/DueTimer/DueTimer.cpp.o
                                                  ./ALFRED_CORE.cpp.o
Timer3                                            ./Libraries/DueTimer/DueTimer.cpp.o
Timer4                                            ./Libraries/DueTimer/DueTimer.cpp.o
Timer5                                            ./Libraries/DueTimer/DueTimer.cpp.o
Timer6                                            ./Libraries/DueTimer/DueTimer.cpp.o
Timer7                                            ./Libraries/DueTimer/DueTimer.cpp.o
Timer8                                            ./Libraries/DueTimer/DueTimer.cpp.o
TwoWire::TwoWire(Twi*, void (*)())                ./Libraries/Wire/Wire.cpp.o
TwoWire::TwoWire(Twi*, void (*)())                ./Libraries/Wire/Wire.cpp.o
TwoWire::available()                              ./Libraries/Wire/Wire.cpp.o
TwoWire::begin()                                  ./Libraries/Wire/Wire.cpp.o
                                                  ./Libraries/I2C_PWM_Servo_Driver/Adafruit_PWMServoDriver.cpp.o
TwoWire::begin(int)                               ./Libraries/Wire/Wire.cpp.o
TwoWire::begin(unsigned char)                     ./Libraries/Wire/Wire.cpp.o
TwoWire::beginTransmission(int)                   ./Libraries/Wire/Wire.cpp.o
TwoWire::beginTransmission(unsigned char)         ./Libraries/Wire/Wire.cpp.o
                                                  ./Libraries/I2C_PWM_Servo_Driver/Adafruit_PWMServoDriver.cpp.o
TwoWire::endTransmission()                        ./Libraries/Wire/Wire.cpp.o
                                                  ./Libraries/I2C_PWM_Servo_Driver/Adafruit_PWMServoDriver.cpp.o
TwoWire::endTransmission(unsigned char)           ./Libraries/Wire/Wire.cpp.o
TwoWire::flush()                                  ./Libraries/Wire/Wire.cpp.o
TwoWire::onReceive(void (*)(int))                 ./Libraries/Wire/Wire.cpp.o
TwoWire::onRequest(void (*)())                    ./Libraries/Wire/Wire.cpp.o
TwoWire::onService()                              ./Libraries/Wire/Wire.cpp.o
TwoWire::peek()                                   ./Libraries/Wire/Wire.cpp.o
TwoWire::read()                                   ./Libraries/Wire/Wire.cpp.o
                                                  ./Libraries/I2C_PWM_Servo_Driver/Adafruit_PWMServoDriver.cpp.o
TwoWire::requestFrom(int, int)                    ./Libraries/Wire/Wire.cpp.o
TwoWire::requestFrom(int, int, int)               ./Libraries/Wire/Wire.cpp.o
TwoWire::requestFrom(unsigned char, unsigned char) ./Libraries/Wire/Wire.cpp.o
                                                  ./Libraries/I2C_PWM_Servo_Driver/Adafruit_PWMServoDriver.cpp.o
TwoWire::requestFrom(unsigned char, unsigned char, unsigned char) ./Libraries/Wire/Wire.cpp.o
TwoWire::write(unsigned char const*, unsigned int) ./Libraries/Wire/Wire.cpp.o
TwoWire::write(unsigned char)                     ./Libraries/Wire/Wire.cpp.o
                                                  ./Libraries/I2C_PWM_Servo_Driver/Adafruit_PWMServoDriver.cpp.o
TxLEDPulse                                        C:/Users/jon_000/Git/ALFRED_CORE/Release/arduino.ar(USBCore.cpp.o)
UARTClass::IrqHandler()                           C:/Users/jon_000/Git/ALFRED_CORE/Release/arduino.ar(UARTClass.cpp.o)
                                                  C:/Users/jon_000/Git/ALFRED_CORE/Release/arduino.ar(variant.cpp.o)
UARTClass::UARTClass(Uart*, IRQn, unsigned long, RingBuffer*) C:/Users/jon_000/Git/ALFRED_CORE/Release/arduino.ar(UARTClass.cpp.o)
UARTClass::UARTClass(Uart*, IRQn, unsigned long, RingBuffer*) C:/Users/jon_000/Git/ALFRED_CORE/Release/arduino.ar(UARTClass.cpp.o)
                                                  C:/Users/jon_000/Git/ALFRED_CORE/Release/arduino.ar(variant.cpp.o)
UARTClass::available()                            C:/Users/jon_000/Git/ALFRED_CORE/Release/arduino.ar(UARTClass.cpp.o)
                                                  C:/Users/jon_000/Git/ALFRED_CORE/Release/arduino.ar(variant.cpp.o)
UARTClass::begin(unsigned long)                   C:/Users/jon_000/Git/ALFRED_CORE/Release/arduino.ar(UARTClass.cpp.o)
                                                  ./ALFRED_CORE.cpp.o
UARTClass::end()                                  C:/Users/jon_000/Git/ALFRED_CORE/Release/arduino.ar(UARTClass.cpp.o)
UARTClass::flush()                                C:/Users/jon_000/Git/ALFRED_CORE/Release/arduino.ar(UARTClass.cpp.o)
UARTClass::operator bool()                        C:/Users/jon_000/Git/ALFRED_CORE/Release/arduino.ar(UARTClass.cpp.o)
UARTClass::peek()                                 C:/Users/jon_000/Git/ALFRED_CORE/Release/arduino.ar(UARTClass.cpp.o)
UARTClass::read()                                 C:/Users/jon_000/Git/ALFRED_CORE/Release/arduino.ar(UARTClass.cpp.o)
UARTClass::write(unsigned char)                   C:/Users/jon_000/Git/ALFRED_CORE/Release/arduino.ar(UARTClass.cpp.o)
UART_Handler                                      C:/Users/jon_000/Git/ALFRED_CORE/Release/arduino.ar(variant.cpp.o)
                                                  C:/Arduino/hardware/arduino/sam/variants/arduino_due_x/libsam_sam3x8e_gcc_rel.a(startup_sam3xa.o)
UDD_Attach                                        C:/Arduino/hardware/arduino/sam/variants/arduino_due_x/libsam_sam3x8e_gcc_rel.a(uotghs_device.o)
                                                  C:/Users/jon_000/Git/ALFRED_CORE/Release/arduino.ar(USBCore.cpp.o)
UDD_ClearIN                                       C:/Arduino/hardware/arduino/sam/variants/arduino_due_x/libsam_sam3x8e_gcc_rel.a(uotghs_device.o)
                                                  C:/Users/jon_000/Git/ALFRED_CORE/Release/arduino.ar(USBCore.cpp.o)
UDD_ClearOUT                                      C:/Arduino/hardware/arduino/sam/variants/arduino_due_x/libsam_sam3x8e_gcc_rel.a(uotghs_device.o)
                                                  C:/Users/jon_000/Git/ALFRED_CORE/Release/arduino.ar(USBCore.cpp.o)
UDD_ClearSetupInt                                 C:/Arduino/hardware/arduino/sam/variants/arduino_due_x/libsam_sam3x8e_gcc_rel.a(uotghs_device.o)
                                                  C:/Users/jon_000/Git/ALFRED_CORE/Release/arduino.ar(USBCore.cpp.o)
UDD_Detach                                        C:/Arduino/hardware/arduino/sam/variants/arduino_due_x/libsam_sam3x8e_gcc_rel.a(uotghs_device.o)
                                                  C:/Users/jon_000/Git/ALFRED_CORE/Release/arduino.ar(USBCore.cpp.o)
UDD_FifoByteCount                                 C:/Arduino/hardware/arduino/sam/variants/arduino_due_x/libsam_sam3x8e_gcc_rel.a(uotghs_device.o)
                                                  C:/Users/jon_000/Git/ALFRED_CORE/Release/arduino.ar(USBCore.cpp.o)
UDD_GetFrameNumber                                C:/Arduino/hardware/arduino/sam/variants/arduino_due_x/libsam_sam3x8e_gcc_rel.a(uotghs_device.o)
                                                  C:/Users/jon_000/Git/ALFRED_CORE/Release/arduino.ar(USBCore.cpp.o)
UDD_Init                                          C:/Arduino/hardware/arduino/sam/variants/arduino_due_x/libsam_sam3x8e_gcc_rel.a(uotghs_device.o)
                                                  C:/Users/jon_000/Git/ALFRED_CORE/Release/arduino.ar(USBCore.cpp.o)
UDD_InitEP                                        C:/Arduino/hardware/arduino/sam/variants/arduino_due_x/libsam_sam3x8e_gcc_rel.a(uotghs_device.o)
                                                  C:/Users/jon_000/Git/ALFRED_CORE/Release/arduino.ar(USBCore.cpp.o)
UDD_InitEndpoints                                 C:/Arduino/hardware/arduino/sam/variants/arduino_due_x/libsam_sam3x8e_gcc_rel.a(uotghs_device.o)
                                                  C:/Users/jon_000/Git/ALFRED_CORE/Release/arduino.ar(USBCore.cpp.o)
UDD_ReadWriteAllowed                              C:/Arduino/hardware/arduino/sam/variants/arduino_due_x/libsam_sam3x8e_gcc_rel.a(uotghs_device.o)
UDD_ReceivedSetupInt                              C:/Arduino/hardware/arduino/sam/variants/arduino_due_x/libsam_sam3x8e_gcc_rel.a(uotghs_device.o)
                                                  C:/Users/jon_000/Git/ALFRED_CORE/Release/arduino.ar(USBCore.cpp.o)
UDD_Recv                                          C:/Arduino/hardware/arduino/sam/variants/arduino_due_x/libsam_sam3x8e_gcc_rel.a(uotghs_device.o)
                                                  C:/Users/jon_000/Git/ALFRED_CORE/Release/arduino.ar(USBCore.cpp.o)
UDD_Recv8                                         C:/Arduino/hardware/arduino/sam/variants/arduino_due_x/libsam_sam3x8e_gcc_rel.a(uotghs_device.o)
                                                  C:/Users/jon_000/Git/ALFRED_CORE/Release/arduino.ar(USBCore.cpp.o)
UDD_ReleaseRX                                     C:/Arduino/hardware/arduino/sam/variants/arduino_due_x/libsam_sam3x8e_gcc_rel.a(uotghs_device.o)
                                                  C:/Users/jon_000/Git/ALFRED_CORE/Release/arduino.ar(USBCore.cpp.o)
UDD_ReleaseTX                                     C:/Arduino/hardware/arduino/sam/variants/arduino_due_x/libsam_sam3x8e_gcc_rel.a(uotghs_device.o)
                                                  C:/Users/jon_000/Git/ALFRED_CORE/Release/arduino.ar(USBCore.cpp.o)
UDD_Send                                          C:/Arduino/hardware/arduino/sam/variants/arduino_due_x/libsam_sam3x8e_gcc_rel.a(uotghs_device.o)
                                                  C:/Users/jon_000/Git/ALFRED_CORE/Release/arduino.ar(USBCore.cpp.o)
UDD_Send8                                         C:/Arduino/hardware/arduino/sam/variants/arduino_due_x/libsam_sam3x8e_gcc_rel.a(uotghs_device.o)
                                                  C:/Users/jon_000/Git/ALFRED_CORE/Release/arduino.ar(USBCore.cpp.o)
UDD_SetAddress                                    C:/Arduino/hardware/arduino/sam/variants/arduino_due_x/libsam_sam3x8e_gcc_rel.a(uotghs_device.o)
                                                  C:/Users/jon_000/Git/ALFRED_CORE/Release/arduino.ar(USBCore.cpp.o)
UDD_SetStack                                      C:/Arduino/hardware/arduino/sam/variants/arduino_due_x/libsam_sam3x8e_gcc_rel.a(uotghs_device.o)
                                                  C:/Users/jon_000/Git/ALFRED_CORE/Release/arduino.ar(USBCore.cpp.o)
UDD_Stall                                         C:/Arduino/hardware/arduino/sam/variants/arduino_due_x/libsam_sam3x8e_gcc_rel.a(uotghs_device.o)
                                                  C:/Users/jon_000/Git/ALFRED_CORE/Release/arduino.ar(USBCore.cpp.o)
UDD_WaitForINOrOUT                                C:/Arduino/hardware/arduino/sam/variants/arduino_due_x/libsam_sam3x8e_gcc_rel.a(uotghs_device.o)
UDD_WaitIN                                        C:/Arduino/hardware/arduino/sam/variants/arduino_due_x/libsam_sam3x8e_gcc_rel.a(uotghs_device.o)
                                                  C:/Users/jon_000/Git/ALFRED_CORE/Release/arduino.ar(USBCore.cpp.o)
UDD_WaitOUT                                       C:/Arduino/hardware/arduino/sam/variants/arduino_due_x/libsam_sam3x8e_gcc_rel.a(uotghs_device.o)
                                                  C:/Users/jon_000/Git/ALFRED_CORE/Release/arduino.ar(USBCore.cpp.o)
UOTGHS_Handler                                    C:/Arduino/hardware/arduino/sam/variants/arduino_due_x/libsam_sam3x8e_gcc_rel.a(uotghs.o)
                                                  C:/Arduino/hardware/arduino/sam/variants/arduino_due_x/libsam_sam3x8e_gcc_rel.a(startup_sam3xa.o)
USART0_Handler                                    C:/Users/jon_000/Git/ALFRED_CORE/Release/arduino.ar(variant.cpp.o)
                                                  C:/Arduino/hardware/arduino/sam/variants/arduino_due_x/libsam_sam3x8e_gcc_rel.a(startup_sam3xa.o)
USART1_Handler                                    C:/Users/jon_000/Git/ALFRED_CORE/Release/arduino.ar(variant.cpp.o)
                                                  C:/Arduino/hardware/arduino/sam/variants/arduino_due_x/libsam_sam3x8e_gcc_rel.a(startup_sam3xa.o)
USART2_Handler                                    C:/Users/jon_000/Git/ALFRED_CORE/Release/arduino.ar(cortex_handlers.c.o)
                                                  C:/Arduino/hardware/arduino/sam/variants/arduino_due_x/libsam_sam3x8e_gcc_rel.a(startup_sam3xa.o)
USART3_Handler                                    C:/Users/jon_000/Git/ALFRED_CORE/Release/arduino.ar(variant.cpp.o)
                                                  C:/Arduino/hardware/arduino/sam/variants/arduino_due_x/libsam_sam3x8e_gcc_rel.a(startup_sam3xa.o)
USARTClass::IrqHandler()                          C:/Users/jon_000/Git/ALFRED_CORE/Release/arduino.ar(USARTClass.cpp.o)
                                                  C:/Users/jon_000/Git/ALFRED_CORE/Release/arduino.ar(variant.cpp.o)
USARTClass::USARTClass(Usart*, IRQn, unsigned long, RingBuffer*) C:/Users/jon_000/Git/ALFRED_CORE/Release/arduino.ar(USARTClass.cpp.o)
                                                  C:/Users/jon_000/Git/ALFRED_CORE/Release/arduino.ar(variant.cpp.o)
USARTClass::USARTClass(Usart*, IRQn, unsigned long, RingBuffer*) C:/Users/jon_000/Git/ALFRED_CORE/Release/arduino.ar(USARTClass.cpp.o)
USARTClass::available()                           C:/Users/jon_000/Git/ALFRED_CORE/Release/arduino.ar(USARTClass.cpp.o)
                                                  C:/Users/jon_000/Git/ALFRED_CORE/Release/arduino.ar(variant.cpp.o)
                                                  ./ALFRED_CORE.cpp.o
USARTClass::begin(unsigned long)                  C:/Users/jon_000/Git/ALFRED_CORE/Release/arduino.ar(USARTClass.cpp.o)
                                                  ./ALFRED_CORE.cpp.o
USARTClass::end()                                 C:/Users/jon_000/Git/ALFRED_CORE/Release/arduino.ar(USARTClass.cpp.o)
USARTClass::flush()                               C:/Users/jon_000/Git/ALFRED_CORE/Release/arduino.ar(USARTClass.cpp.o)
USARTClass::operator bool()                       C:/Users/jon_000/Git/ALFRED_CORE/Release/arduino.ar(USARTClass.cpp.o)
USARTClass::peek()                                C:/Users/jon_000/Git/ALFRED_CORE/Release/arduino.ar(USARTClass.cpp.o)
USARTClass::read()                                C:/Users/jon_000/Git/ALFRED_CORE/Release/arduino.ar(USARTClass.cpp.o)
USARTClass::write(unsigned char)                  C:/Users/jon_000/Git/ALFRED_CORE/Release/arduino.ar(USARTClass.cpp.o)
USBD_Available(unsigned long)                     C:/Users/jon_000/Git/ALFRED_CORE/Release/arduino.ar(USBCore.cpp.o)
                                                  C:/Users/jon_000/Git/ALFRED_CORE/Release/arduino.ar(CDC.cpp.o)
USBD_ClassInterfaceRequest(Setup&)                C:/Users/jon_000/Git/ALFRED_CORE/Release/arduino.ar(USBCore.cpp.o)
USBD_Connected()                                  C:/Users/jon_000/Git/ALFRED_CORE/Release/arduino.ar(USBCore.cpp.o)
USBD_Flush(unsigned long)                         C:/Users/jon_000/Git/ALFRED_CORE/Release/arduino.ar(USBCore.cpp.o)
                                                  C:/Users/jon_000/Git/ALFRED_CORE/Release/arduino.ar(CDC.cpp.o)
USBD_InitControl(int)                             C:/Users/jon_000/Git/ALFRED_CORE/Release/arduino.ar(USBCore.cpp.o)
USBD_Recv(unsigned long)                          C:/Users/jon_000/Git/ALFRED_CORE/Release/arduino.ar(USBCore.cpp.o)
                                                  C:/Users/jon_000/Git/ALFRED_CORE/Release/arduino.ar(CDC.cpp.o)
USBD_Recv(unsigned long, void*, unsigned long)    C:/Users/jon_000/Git/ALFRED_CORE/Release/arduino.ar(USBCore.cpp.o)
USBD_RecvControl(void*, unsigned long)            C:/Users/jon_000/Git/ALFRED_CORE/Release/arduino.ar(USBCore.cpp.o)
                                                  C:/Users/jon_000/Git/ALFRED_CORE/Release/arduino.ar(CDC.cpp.o)
USBD_Send(unsigned long, void const*, unsigned long) C:/Users/jon_000/Git/ALFRED_CORE/Release/arduino.ar(USBCore.cpp.o)
                                                  C:/Users/jon_000/Git/ALFRED_CORE/Release/arduino.ar(HID.cpp.o)
                                                  C:/Users/jon_000/Git/ALFRED_CORE/Release/arduino.ar(CDC.cpp.o)
USBD_SendControl(unsigned char, void const*, unsigned long) C:/Users/jon_000/Git/ALFRED_CORE/Release/arduino.ar(USBCore.cpp.o)
                                                  C:/Users/jon_000/Git/ALFRED_CORE/Release/arduino.ar(HID.cpp.o)
                                                  C:/Users/jon_000/Git/ALFRED_CORE/Release/arduino.ar(CDC.cpp.o)
USBD_SendInterfaces()                             C:/Users/jon_000/Git/ALFRED_CORE/Release/arduino.ar(USBCore.cpp.o)
USBD_SendOtherInterfaces()                        C:/Users/jon_000/Git/ALFRED_CORE/Release/arduino.ar(USBCore.cpp.o)
USBDevice                                         C:/Users/jon_000/Git/ALFRED_CORE/Release/arduino.ar(USBCore.cpp.o)
                                                  C:/Users/jon_000/Git/ALFRED_CORE/Release/arduino.ar(main.cpp.o)
USBDevice_::USBDevice_()                          C:/Users/jon_000/Git/ALFRED_CORE/Release/arduino.ar(USBCore.cpp.o)
USBDevice_::USBDevice_()                          C:/Users/jon_000/Git/ALFRED_CORE/Release/arduino.ar(USBCore.cpp.o)
USBDevice_::attach()                              C:/Users/jon_000/Git/ALFRED_CORE/Release/arduino.ar(USBCore.cpp.o)
                                                  C:/Users/jon_000/Git/ALFRED_CORE/Release/arduino.ar(main.cpp.o)
USBDevice_::configured()                          C:/Users/jon_000/Git/ALFRED_CORE/Release/arduino.ar(USBCore.cpp.o)
USBDevice_::detach()                              C:/Users/jon_000/Git/ALFRED_CORE/Release/arduino.ar(USBCore.cpp.o)
USBDevice_::poll()                                C:/Users/jon_000/Git/ALFRED_CORE/Release/arduino.ar(USBCore.cpp.o)
USB_DeviceDescriptor                              C:/Users/jon_000/Git/ALFRED_CORE/Release/arduino.ar(USBCore.cpp.o)
USB_DeviceDescriptorA                             C:/Users/jon_000/Git/ALFRED_CORE/Release/arduino.ar(USBCore.cpp.o)
UsageFault_Handler                                C:/Users/jon_000/Git/ALFRED_CORE/Release/arduino.ar(cortex_handlers.c.o)
                                                  C:/Arduino/hardware/arduino/sam/variants/arduino_due_x/libsam_sam3x8e_gcc_rel.a(startup_sam3xa.o)
WDT_Disable                                       C:/Arduino/hardware/arduino/sam/variants/arduino_due_x/libsam_sam3x8e_gcc_rel.a(wdt.o)
                                                  C:/Users/jon_000/Git/ALFRED_CORE/Release/arduino.ar(variant.cpp.o)
WDT_Enable                                        C:/Arduino/hardware/arduino/sam/variants/arduino_due_x/libsam_sam3x8e_gcc_rel.a(wdt.o)
WDT_GetPeriod                                     C:/Arduino/hardware/arduino/sam/variants/arduino_due_x/libsam_sam3x8e_gcc_rel.a(wdt.o)
WDT_GetStatus                                     C:/Arduino/hardware/arduino/sam/variants/arduino_due_x/libsam_sam3x8e_gcc_rel.a(wdt.o)
WDT_Handler                                       C:/Users/jon_000/Git/ALFRED_CORE/Release/arduino.ar(cortex_handlers.c.o)
                                                  C:/Arduino/hardware/arduino/sam/variants/arduino_due_x/libsam_sam3x8e_gcc_rel.a(startup_sam3xa.o)
WDT_Restart                                       C:/Arduino/hardware/arduino/sam/variants/arduino_due_x/libsam_sam3x8e_gcc_rel.a(wdt.o)
Wait                                              C:/Arduino/hardware/arduino/sam/variants/arduino_due_x/libsam_sam3x8e_gcc_rel.a(timetick.o)
Wire                                              ./Libraries/Wire/Wire.cpp.o
Wire1                                             ./Libraries/Wire/Wire.cpp.o
                                                  ./Libraries/I2C_PWM_Servo_Driver/Adafruit_PWMServoDriver.cpp.o
_Balloc                                           c:/arduino/hardware/tools/g++_arm_none_eabi/bin/../lib/gcc/arm-none-eabi/4.4.1/../../../../arm-none-eabi/lib/thumb2\libc.a(lib_a-mprec.o)
                                                  c:/arduino/hardware/tools/g++_arm_none_eabi/bin/../lib/gcc/arm-none-eabi/4.4.1/../../../../arm-none-eabi/lib/thumb2\libc.a(lib_a-gdtoa-gethex.o)
                                                  c:/arduino/hardware/tools/g++_arm_none_eabi/bin/../lib/gcc/arm-none-eabi/4.4.1/../../../../arm-none-eabi/lib/thumb2\libc.a(lib_a-dtoa.o)
                                                  c:/arduino/hardware/tools/g++_arm_none_eabi/bin/../lib/gcc/arm-none-eabi/4.4.1/../../../../arm-none-eabi/lib/thumb2\libc.a(lib_a-strtod.o)
_Bfree                                            c:/arduino/hardware/tools/g++_arm_none_eabi/bin/../lib/gcc/arm-none-eabi/4.4.1/../../../../arm-none-eabi/lib/thumb2\libc.a(lib_a-mprec.o)
                                                  c:/arduino/hardware/tools/g++_arm_none_eabi/bin/../lib/gcc/arm-none-eabi/4.4.1/../../../../arm-none-eabi/lib/thumb2\libc.a(lib_a-gdtoa-gethex.o)
                                                  c:/arduino/hardware/tools/g++_arm_none_eabi/bin/../lib/gcc/arm-none-eabi/4.4.1/../../../../arm-none-eabi/lib/thumb2\libc.a(lib_a-dtoa.o)
                                                  c:/arduino/hardware/tools/g++_arm_none_eabi/bin/../lib/gcc/arm-none-eabi/4.4.1/../../../../arm-none-eabi/lib/thumb2\libc.a(lib_a-strtod.o)
_Jv_RegisterClasses                               c:/arduino/hardware/tools/g++_arm_none_eabi/bin/../lib/gcc/arm-none-eabi/4.4.1/thumb2/crtbegin.o
_PathLocale                                       c:/arduino/hardware/tools/g++_arm_none_eabi/bin/../lib/gcc/arm-none-eabi/4.4.1/../../../../arm-none-eabi/lib/thumb2\libc.a(lib_a-locale.o)
__adddf3                                          c:/arduino/hardware/tools/g++_arm_none_eabi/bin/../lib/gcc/arm-none-eabi/4.4.1/thumb2\libgcc.a(_arm_addsubdf3.o)
__addsf3                                          c:/arduino/hardware/tools/g++_arm_none_eabi/bin/../lib/gcc/arm-none-eabi/4.4.1/thumb2\libgcc.a(_arm_addsubsf3.o)
__aeabi_cdcmpeq                                   c:/arduino/hardware/tools/g++_arm_none_eabi/bin/../lib/gcc/arm-none-eabi/4.4.1/thumb2\libgcc.a(_arm_cmpdf2.o)
__aeabi_cdcmple                                   c:/arduino/hardware/tools/g++_arm_none_eabi/bin/../lib/gcc/arm-none-eabi/4.4.1/thumb2\libgcc.a(_arm_cmpdf2.o)
__aeabi_cdrcmple                                  c:/arduino/hardware/tools/g++_arm_none_eabi/bin/../lib/gcc/arm-none-eabi/4.4.1/thumb2\libgcc.a(_arm_cmpdf2.o)
__aeabi_cfcmpeq                                   c:/arduino/hardware/tools/g++_arm_none_eabi/bin/../lib/gcc/arm-none-eabi/4.4.1/thumb2\libgcc.a(_arm_cmpsf2.o)
__aeabi_cfcmple                                   c:/arduino/hardware/tools/g++_arm_none_eabi/bin/../lib/gcc/arm-none-eabi/4.4.1/thumb2\libgcc.a(_arm_cmpsf2.o)
__aeabi_cfrcmple                                  c:/arduino/hardware/tools/g++_arm_none_eabi/bin/../lib/gcc/arm-none-eabi/4.4.1/thumb2\libgcc.a(_arm_cmpsf2.o)
__aeabi_d2f                                       c:/arduino/hardware/tools/g++_arm_none_eabi/bin/../lib/gcc/arm-none-eabi/4.4.1/thumb2\libgcc.a(_arm_truncdfsf2.o)
                                                  c:/arduino/hardware/tools/g++_arm_none_eabi/bin/../lib/gcc/arm-none-eabi/4.4.1/../../../../arm-none-eabi/lib/thumb2\libc.a(lib_a-strtod.o)
                                                  C:/Users/jon_000/Git/ALFRED_CORE/Release/arduino.ar(WString.cpp.o)
                                                  C:/Users/jon_000/Git/ALFRED_CORE/Release/arduino.ar(Stream.cpp.o)
                                                  ./Libraries/DueTimer/DueTimer.cpp.o
__aeabi_d2iz                                      c:/arduino/hardware/tools/g++_arm_none_eabi/bin/../lib/gcc/arm-none-eabi/4.4.1/thumb2\libgcc.a(_arm_fixdfsi.o)
                                                  c:/arduino/hardware/tools/g++_arm_none_eabi/bin/../lib/gcc/arm-none-eabi/4.4.1/../../../../arm-none-eabi/lib/thumb2\libc.a(lib_a-dtoa.o)
                                                  c:/arduino/hardware/tools/g++_arm_none_eabi/bin/../lib/gcc/arm-none-eabi/4.4.1/../../../../arm-none-eabi/lib/thumb2\libc.a(lib_a-strtod.o)
                                                  C:/Users/jon_000/Git/ALFRED_CORE/Release/arduino.ar(Print.cpp.o)
                                                  ./Libraries/DueTimer/DueTimer.cpp.o
__aeabi_d2uiz                                     c:/arduino/hardware/tools/g++_arm_none_eabi/bin/../lib/gcc/arm-none-eabi/4.4.1/thumb2\libgcc.a(_arm_fixunsdfsi.o)
                                                  c:/arduino/hardware/tools/g++_arm_none_eabi/bin/../lib/gcc/arm-none-eabi/4.4.1/../../../../arm-none-eabi/lib/thumb2\libc.a(lib_a-strtod.o)
                                                  C:/Users/jon_000/Git/ALFRED_CORE/Release/arduino.ar(Print.cpp.o)
                                                  ./Libraries/I2C_PWM_Servo_Driver/Adafruit_PWMServoDriver.cpp.o
__aeabi_dadd                                      c:/arduino/hardware/tools/g++_arm_none_eabi/bin/../lib/gcc/arm-none-eabi/4.4.1/thumb2\libgcc.a(_arm_addsubdf3.o)
                                                  c:/arduino/hardware/tools/g++_arm_none_eabi/bin/../lib/gcc/arm-none-eabi/4.4.1/../../../../arm-none-eabi/lib/thumb2\libc.a(lib_a-dtoa.o)
                                                  c:/arduino/hardware/tools/g++_arm_none_eabi/bin/../lib/gcc/arm-none-eabi/4.4.1/../../../../arm-none-eabi/lib/thumb2\libc.a(lib_a-strtod.o)
                                                  c:/arduino/hardware/tools/g++_arm_none_eabi/bin/../lib/gcc/arm-none-eabi/4.4.1/../../../../arm-none-eabi/lib/thumb2\libm.a(lib_a-s_floor.o)
                                                  C:/Users/jon_000/Git/ALFRED_CORE/Release/arduino.ar(Print.cpp.o)
                                                  ./Libraries/DueTimer/DueTimer.cpp.o
                                                  ./Libraries/I2C_PWM_Servo_Driver/Adafruit_PWMServoDriver.cpp.o
__aeabi_dcmpeq                                    c:/arduino/hardware/tools/g++_arm_none_eabi/bin/../lib/gcc/arm-none-eabi/4.4.1/thumb2\libgcc.a(_arm_cmpdf2.o)
                                                  c:/arduino/hardware/tools/g++_arm_none_eabi/bin/../lib/gcc/arm-none-eabi/4.4.1/../../../../arm-none-eabi/lib/thumb2\libc.a(lib_a-dtoa.o)
                                                  c:/arduino/hardware/tools/g++_arm_none_eabi/bin/../lib/gcc/arm-none-eabi/4.4.1/../../../../arm-none-eabi/lib/thumb2\libc.a(lib_a-svfprintf.o)
                                                  c:/arduino/hardware/tools/g++_arm_none_eabi/bin/../lib/gcc/arm-none-eabi/4.4.1/../../../../arm-none-eabi/lib/thumb2\libc.a(lib_a-strtod.o)
__aeabi_dcmpge                                    c:/arduino/hardware/tools/g++_arm_none_eabi/bin/../lib/gcc/arm-none-eabi/4.4.1/thumb2\libgcc.a(_arm_cmpdf2.o)
                                                  c:/arduino/hardware/tools/g++_arm_none_eabi/bin/../lib/gcc/arm-none-eabi/4.4.1/../../../../arm-none-eabi/lib/thumb2\libc.a(lib_a-dtoa.o)
__aeabi_dcmpgt                                    c:/arduino/hardware/tools/g++_arm_none_eabi/bin/../lib/gcc/arm-none-eabi/4.4.1/thumb2\libgcc.a(_arm_cmpdf2.o)
                                                  c:/arduino/hardware/tools/g++_arm_none_eabi/bin/../lib/gcc/arm-none-eabi/4.4.1/../../../../arm-none-eabi/lib/thumb2\libc.a(lib_a-dtoa.o)
                                                  c:/arduino/hardware/tools/g++_arm_none_eabi/bin/../lib/gcc/arm-none-eabi/4.4.1/../../../../arm-none-eabi/lib/thumb2\libc.a(lib_a-strtod.o)
                                                  c:/arduino/hardware/tools/g++_arm_none_eabi/bin/../lib/gcc/arm-none-eabi/4.4.1/../../../../arm-none-eabi/lib/thumb2\libm.a(lib_a-s_floor.o)
                                                  C:/Users/jon_000/Git/ALFRED_CORE/Release/arduino.ar(Print.cpp.o)
__aeabi_dcmple                                    c:/arduino/hardware/tools/g++_arm_none_eabi/bin/../lib/gcc/arm-none-eabi/4.4.1/thumb2\libgcc.a(_arm_cmpdf2.o)
                                                  c:/arduino/hardware/tools/g++_arm_none_eabi/bin/../lib/gcc/arm-none-eabi/4.4.1/../../../../arm-none-eabi/lib/thumb2\libc.a(lib_a-strtod.o)
                                                  ./Libraries/DueTimer/DueTimer.cpp.o
__aeabi_dcmplt                                    c:/arduino/hardware/tools/g++_arm_none_eabi/bin/../lib/gcc/arm-none-eabi/4.4.1/thumb2\libgcc.a(_arm_cmpdf2.o)
                                                  c:/arduino/hardware/tools/g++_arm_none_eabi/bin/../lib/gcc/arm-none-eabi/4.4.1/../../../../arm-none-eabi/lib/thumb2\libc.a(lib_a-dtoa.o)
                                                  c:/arduino/hardware/tools/g++_arm_none_eabi/bin/../lib/gcc/arm-none-eabi/4.4.1/../../../../arm-none-eabi/lib/thumb2\libc.a(lib_a-svfprintf.o)
                                                  c:/arduino/hardware/tools/g++_arm_none_eabi/bin/../lib/gcc/arm-none-eabi/4.4.1/../../../../arm-none-eabi/lib/thumb2\libc.a(lib_a-strtod.o)
                                                  C:/Users/jon_000/Git/ALFRED_CORE/Release/arduino.ar(Print.cpp.o)
__aeabi_ddiv                                      c:/arduino/hardware/tools/g++_arm_none_eabi/bin/../lib/gcc/arm-none-eabi/4.4.1/thumb2\libgcc.a(_arm_muldivdf3.o)
                                                  c:/arduino/hardware/tools/g++_arm_none_eabi/bin/../lib/gcc/arm-none-eabi/4.4.1/../../../../arm-none-eabi/lib/thumb2\libc.a(lib_a-mprec.o)
                                                  c:/arduino/hardware/tools/g++_arm_none_eabi/bin/../lib/gcc/arm-none-eabi/4.4.1/../../../../arm-none-eabi/lib/thumb2\libc.a(lib_a-dtoa.o)
                                                  c:/arduino/hardware/tools/g++_arm_none_eabi/bin/../lib/gcc/arm-none-eabi/4.4.1/../../../../arm-none-eabi/lib/thumb2\libc.a(lib_a-strtod.o)
                                                  C:/Users/jon_000/Git/ALFRED_CORE/Release/arduino.ar(Print.cpp.o)
                                                  ./Libraries/DueTimer/DueTimer.cpp.o
__aeabi_dmul                                      c:/arduino/hardware/tools/g++_arm_none_eabi/bin/../lib/gcc/arm-none-eabi/4.4.1/thumb2\libgcc.a(_arm_muldivdf3.o)
                                                  c:/arduino/hardware/tools/g++_arm_none_eabi/bin/../lib/gcc/arm-none-eabi/4.4.1/../../../../arm-none-eabi/lib/thumb2\libc.a(lib_a-mprec.o)
                                                  c:/arduino/hardware/tools/g++_arm_none_eabi/bin/../lib/gcc/arm-none-eabi/4.4.1/../../../../arm-none-eabi/lib/thumb2\libc.a(lib_a-dtoa.o)
                                                  c:/arduino/hardware/tools/g++_arm_none_eabi/bin/../lib/gcc/arm-none-eabi/4.4.1/../../../../arm-none-eabi/lib/thumb2\libc.a(lib_a-strtod.o)
                                                  C:/Users/jon_000/Git/ALFRED_CORE/Release/arduino.ar(Stream.cpp.o)
                                                  C:/Users/jon_000/Git/ALFRED_CORE/Release/arduino.ar(Print.cpp.o)
                                                  ./Libraries/DueTimer/DueTimer.cpp.o
__aeabi_drsub                                     c:/arduino/hardware/tools/g++_arm_none_eabi/bin/../lib/gcc/arm-none-eabi/4.4.1/thumb2\libgcc.a(_arm_addsubdf3.o)
__aeabi_dsub                                      c:/arduino/hardware/tools/g++_arm_none_eabi/bin/../lib/gcc/arm-none-eabi/4.4.1/thumb2\libgcc.a(_arm_addsubdf3.o)
                                                  c:/arduino/hardware/tools/g++_arm_none_eabi/bin/../lib/gcc/arm-none-eabi/4.4.1/../../../../arm-none-eabi/lib/thumb2\libc.a(lib_a-dtoa.o)
                                                  c:/arduino/hardware/tools/g++_arm_none_eabi/bin/../lib/gcc/arm-none-eabi/4.4.1/../../../../arm-none-eabi/lib/thumb2\libc.a(lib_a-strtod.o)
                                                  C:/Users/jon_000/Git/ALFRED_CORE/Release/arduino.ar(Print.cpp.o)
                                                  ./Libraries/DueTimer/DueTimer.cpp.o
__aeabi_f2d                                       c:/arduino/hardware/tools/g++_arm_none_eabi/bin/../lib/gcc/arm-none-eabi/4.4.1/thumb2\libgcc.a(_arm_addsubdf3.o)
                                                  C:/Users/jon_000/Git/ALFRED_CORE/Release/arduino.ar(WString.cpp.o)
                                                  C:/Users/jon_000/Git/ALFRED_CORE/Release/arduino.ar(Stream.cpp.o)
                                                  ./Libraries/DueTimer/DueTimer.cpp.o
                                                  ./Libraries/I2C_PWM_Servo_Driver/Adafruit_PWMServoDriver.cpp.o
__aeabi_fadd                                      c:/arduino/hardware/tools/g++_arm_none_eabi/bin/../lib/gcc/arm-none-eabi/4.4.1/thumb2\libgcc.a(_arm_addsubsf3.o)
__aeabi_fcmpeq                                    c:/arduino/hardware/tools/g++_arm_none_eabi/bin/../lib/gcc/arm-none-eabi/4.4.1/thumb2\libgcc.a(_arm_cmpsf2.o)
                                                  c:/arduino/hardware/tools/g++_arm_none_eabi/bin/../lib/gcc/arm-none-eabi/4.4.1/../../../../arm-none-eabi/lib/thumb2\libc.a(lib_a-strtod.o)
__aeabi_fcmpge                                    c:/arduino/hardware/tools/g++_arm_none_eabi/bin/../lib/gcc/arm-none-eabi/4.4.1/thumb2\libgcc.a(_arm_cmpsf2.o)
                                                  ./Libraries/DueTimer/DueTimer.cpp.o
__aeabi_fcmpgt                                    c:/arduino/hardware/tools/g++_arm_none_eabi/bin/../lib/gcc/arm-none-eabi/4.4.1/thumb2\libgcc.a(_arm_cmpsf2.o)
                                                  c:/arduino/hardware/tools/g++_arm_none_eabi/bin/../lib/gcc/arm-none-eabi/4.4.1/../../../../arm-none-eabi/lib/thumb2\libc.a(lib_a-strtod.o)
                                                  ./Libraries/DueTimer/DueTimer.cpp.o
__aeabi_fcmple                                    c:/arduino/hardware/tools/g++_arm_none_eabi/bin/../lib/gcc/arm-none-eabi/4.4.1/thumb2\libgcc.a(_arm_cmpsf2.o)
__aeabi_fcmplt                                    c:/arduino/hardware/tools/g++_arm_none_eabi/bin/../lib/gcc/arm-none-eabi/4.4.1/thumb2\libgcc.a(_arm_cmpsf2.o)
                                                  c:/arduino/hardware/tools/g++_arm_none_eabi/bin/../lib/gcc/arm-none-eabi/4.4.1/../../../../arm-none-eabi/lib/thumb2\libc.a(lib_a-strtod.o)
                                                  ./Libraries/DueTimer/DueTimer.cpp.o
__aeabi_fdiv                                      c:/arduino/hardware/tools/g++_arm_none_eabi/bin/../lib/gcc/arm-none-eabi/4.4.1/thumb2\libgcc.a(_arm_muldivsf3.o)
                                                  ./Libraries/I2C_PWM_Servo_Driver/Adafruit_PWMServoDriver.cpp.o
__aeabi_fmul                                      c:/arduino/hardware/tools/g++_arm_none_eabi/bin/../lib/gcc/arm-none-eabi/4.4.1/thumb2\libgcc.a(_arm_muldivsf3.o)
                                                  C:/Users/jon_000/Git/ALFRED_CORE/Release/arduino.ar(Stream.cpp.o)
__aeabi_frsub                                     c:/arduino/hardware/tools/g++_arm_none_eabi/bin/../lib/gcc/arm-none-eabi/4.4.1/thumb2\libgcc.a(_arm_addsubsf3.o)
__aeabi_fsub                                      c:/arduino/hardware/tools/g++_arm_none_eabi/bin/../lib/gcc/arm-none-eabi/4.4.1/thumb2\libgcc.a(_arm_addsubsf3.o)
                                                  ./Libraries/DueTimer/DueTimer.cpp.o
                                                  ./Libraries/I2C_PWM_Servo_Driver/Adafruit_PWMServoDriver.cpp.o
__aeabi_i2d                                       c:/arduino/hardware/tools/g++_arm_none_eabi/bin/../lib/gcc/arm-none-eabi/4.4.1/thumb2\libgcc.a(_arm_addsubdf3.o)
                                                  c:/arduino/hardware/tools/g++_arm_none_eabi/bin/../lib/gcc/arm-none-eabi/4.4.1/../../../../arm-none-eabi/lib/thumb2\libc.a(lib_a-dtoa.o)
                                                  c:/arduino/hardware/tools/g++_arm_none_eabi/bin/../lib/gcc/arm-none-eabi/4.4.1/../../../../arm-none-eabi/lib/thumb2\libc.a(lib_a-strtod.o)
                                                  C:/Users/jon_000/Git/ALFRED_CORE/Release/arduino.ar(Print.cpp.o)
                                                  ./Libraries/DueTimer/DueTimer.cpp.o
__aeabi_i2f                                       c:/arduino/hardware/tools/g++_arm_none_eabi/bin/../lib/gcc/arm-none-eabi/4.4.1/thumb2\libgcc.a(_arm_addsubsf3.o)
                                                  C:/Users/jon_000/Git/ALFRED_CORE/Release/arduino.ar(Stream.cpp.o)
                                                  ./Libraries/DueTimer/DueTimer.cpp.o
__aeabi_idiv0                                     c:/arduino/hardware/tools/g++_arm_none_eabi/bin/../lib/gcc/arm-none-eabi/4.4.1/thumb2\libgcc.a(_dvmd_tls.o)
                                                  c:/arduino/hardware/tools/g++_arm_none_eabi/bin/../lib/gcc/arm-none-eabi/4.4.1/thumb2\libgcc.a(_udivsi3.o)
__aeabi_l2d                                       c:/arduino/hardware/tools/g++_arm_none_eabi/bin/../lib/gcc/arm-none-eabi/4.4.1/thumb2\libgcc.a(_arm_addsubdf3.o)
__aeabi_l2f                                       c:/arduino/hardware/tools/g++_arm_none_eabi/bin/../lib/gcc/arm-none-eabi/4.4.1/thumb2\libgcc.a(_arm_addsubsf3.o)
__aeabi_ldiv0                                     c:/arduino/hardware/tools/g++_arm_none_eabi/bin/../lib/gcc/arm-none-eabi/4.4.1/thumb2\libgcc.a(_dvmd_tls.o)
                                                  c:/arduino/hardware/tools/g++_arm_none_eabi/bin/../lib/gcc/arm-none-eabi/4.4.1/thumb2\libgcc.a(_aeabi_uldivmod.o)
__aeabi_ui2d                                      c:/arduino/hardware/tools/g++_arm_none_eabi/bin/../lib/gcc/arm-none-eabi/4.4.1/thumb2\libgcc.a(_arm_addsubdf3.o)
                                                  c:/arduino/hardware/tools/g++_arm_none_eabi/bin/../lib/gcc/arm-none-eabi/4.4.1/../../../../arm-none-eabi/lib/thumb2\libc.a(lib_a-dtoa.o)
                                                  c:/arduino/hardware/tools/g++_arm_none_eabi/bin/../lib/gcc/arm-none-eabi/4.4.1/../../../../arm-none-eabi/lib/thumb2\libc.a(lib_a-strtod.o)
                                                  C:/Users/jon_000/Git/ALFRED_CORE/Release/arduino.ar(Print.cpp.o)
__aeabi_ui2f                                      c:/arduino/hardware/tools/g++_arm_none_eabi/bin/../lib/gcc/arm-none-eabi/4.4.1/thumb2\libgcc.a(_arm_addsubsf3.o)
                                                  ./Libraries/DueTimer/DueTimer.cpp.o
__aeabi_uidiv                                     c:/arduino/hardware/tools/g++_arm_none_eabi/bin/../lib/gcc/arm-none-eabi/4.4.1/thumb2\libgcc.a(_udivsi3.o)
                                                  c:/arduino/hardware/tools/g++_arm_none_eabi/bin/../lib/gcc/arm-none-eabi/4.4.1/thumb2\libgcc.a(_udivdi3.o)
                                                  c:/arduino/hardware/tools/g++_arm_none_eabi/bin/../lib/gcc/arm-none-eabi/4.4.1/thumb2\libgcc.a(_divdi3.o)
                                                  c:/arduino/hardware/tools/g++_arm_none_eabi/bin/../lib/gcc/arm-none-eabi/4.4.1/../../../../arm-none-eabi/lib/thumb2\libc.a(lib_a-dtoa.o)
                                                  c:/arduino/hardware/tools/g++_arm_none_eabi/bin/../lib/gcc/arm-none-eabi/4.4.1/../../../../arm-none-eabi/lib/thumb2\libc.a(lib_a-strtol.o)
__aeabi_uidivmod                                  c:/arduino/hardware/tools/g++_arm_none_eabi/bin/../lib/gcc/arm-none-eabi/4.4.1/thumb2\libgcc.a(_udivsi3.o)
                                                  c:/arduino/hardware/tools/g++_arm_none_eabi/bin/../lib/gcc/arm-none-eabi/4.4.1/thumb2\libgcc.a(_udivdi3.o)
                                                  c:/arduino/hardware/tools/g++_arm_none_eabi/bin/../lib/gcc/arm-none-eabi/4.4.1/thumb2\libgcc.a(_divdi3.o)
                                                  c:/arduino/hardware/tools/g++_arm_none_eabi/bin/../lib/gcc/arm-none-eabi/4.4.1/../../../../arm-none-eabi/lib/thumb2\libc.a(lib_a-strtol.o)
__aeabi_ul2d                                      c:/arduino/hardware/tools/g++_arm_none_eabi/bin/../lib/gcc/arm-none-eabi/4.4.1/thumb2\libgcc.a(_arm_addsubdf3.o)
__aeabi_ul2f                                      c:/arduino/hardware/tools/g++_arm_none_eabi/bin/../lib/gcc/arm-none-eabi/4.4.1/thumb2\libgcc.a(_arm_addsubsf3.o)
__aeabi_uldivmod                                  c:/arduino/hardware/tools/g++_arm_none_eabi/bin/../lib/gcc/arm-none-eabi/4.4.1/thumb2\libgcc.a(_aeabi_uldivmod.o)
                                                  c:/arduino/hardware/tools/g++_arm_none_eabi/bin/../lib/gcc/arm-none-eabi/4.4.1/../../../../arm-none-eabi/lib/thumb2\libc.a(lib_a-vfiprintf.o)
                                                  c:/arduino/hardware/tools/g++_arm_none_eabi/bin/../lib/gcc/arm-none-eabi/4.4.1/../../../../arm-none-eabi/lib/thumb2\libc.a(lib_a-svfprintf.o)
__any_on                                          c:/arduino/hardware/tools/g++_arm_none_eabi/bin/../lib/gcc/arm-none-eabi/4.4.1/../../../../arm-none-eabi/lib/thumb2\libc.a(lib_a-mprec.o)
                                                  c:/arduino/hardware/tools/g++_arm_none_eabi/bin/../lib/gcc/arm-none-eabi/4.4.1/../../../../arm-none-eabi/lib/thumb2\libc.a(lib_a-gdtoa-gethex.o)
__assert                                          c:/arduino/hardware/tools/g++_arm_none_eabi/bin/../lib/gcc/arm-none-eabi/4.4.1/../../../../arm-none-eabi/lib/thumb2\libc.a(lib_a-assert.o)
__assert_func                                     c:/arduino/hardware/tools/g++_arm_none_eabi/bin/../lib/gcc/arm-none-eabi/4.4.1/../../../../arm-none-eabi/lib/thumb2\libc.a(lib_a-assert.o)
                                                  C:/Arduino/hardware/arduino/sam/variants/arduino_due_x/libsam_sam3x8e_gcc_rel.a(twi.o)
                                                  C:/Arduino/hardware/arduino/sam/variants/arduino_due_x/libsam_sam3x8e_gcc_rel.a(tc.o)
                                                  C:/Arduino/hardware/arduino/sam/variants/arduino_due_x/libsam_sam3x8e_gcc_rel.a(pwmc.o)
__b2d                                             c:/arduino/hardware/tools/g++_arm_none_eabi/bin/../lib/gcc/arm-none-eabi/4.4.1/../../../../arm-none-eabi/lib/thumb2\libc.a(lib_a-mprec.o)
__cmpdf2                                          c:/arduino/hardware/tools/g++_arm_none_eabi/bin/../lib/gcc/arm-none-eabi/4.4.1/thumb2\libgcc.a(_arm_cmpdf2.o)
__cmpsf2                                          c:/arduino/hardware/tools/g++_arm_none_eabi/bin/../lib/gcc/arm-none-eabi/4.4.1/thumb2\libgcc.a(_arm_cmpsf2.o)
__copybits                                        c:/arduino/hardware/tools/g++_arm_none_eabi/bin/../lib/gcc/arm-none-eabi/4.4.1/../../../../arm-none-eabi/lib/thumb2\libc.a(lib_a-mprec.o)
                                                  c:/arduino/hardware/tools/g++_arm_none_eabi/bin/../lib/gcc/arm-none-eabi/4.4.1/../../../../arm-none-eabi/lib/thumb2\libc.a(lib_a-strtod.o)
__ctype_ptr                                       c:/arduino/hardware/tools/g++_arm_none_eabi/bin/../lib/gcc/arm-none-eabi/4.4.1/../../../../arm-none-eabi/lib/thumb2\libc.a(lib_a-ctype_.o)
__ctype_ptr__                                     c:/arduino/hardware/tools/g++_arm_none_eabi/bin/../lib/gcc/arm-none-eabi/4.4.1/../../../../arm-none-eabi/lib/thumb2\libc.a(lib_a-ctype_.o)
                                                  c:/arduino/hardware/tools/g++_arm_none_eabi/bin/../lib/gcc/arm-none-eabi/4.4.1/../../../../arm-none-eabi/lib/thumb2\libc.a(lib_a-toupper.o)
                                                  c:/arduino/hardware/tools/g++_arm_none_eabi/bin/../lib/gcc/arm-none-eabi/4.4.1/../../../../arm-none-eabi/lib/thumb2\libc.a(lib_a-tolower.o)
                                                  c:/arduino/hardware/tools/g++_arm_none_eabi/bin/../lib/gcc/arm-none-eabi/4.4.1/../../../../arm-none-eabi/lib/thumb2\libc.a(lib_a-strtol.o)
                                                  c:/arduino/hardware/tools/g++_arm_none_eabi/bin/../lib/gcc/arm-none-eabi/4.4.1/../../../../arm-none-eabi/lib/thumb2\libc.a(lib_a-isspace.o)
__cxa_pure_virtual                                C:/Users/jon_000/Git/ALFRED_CORE/Release/arduino.ar(cxxabi-compat.cpp.o)
                                                  C:/Users/jon_000/Git/ALFRED_CORE/Release/arduino.ar(CDC.cpp.o)
                                                  C:/Users/jon_000/Git/ALFRED_CORE/Release/arduino.ar(USARTClass.cpp.o)
                                                  C:/Users/jon_000/Git/ALFRED_CORE/Release/arduino.ar(UARTClass.cpp.o)
                                                  C:/Users/jon_000/Git/ALFRED_CORE/Release/arduino.ar(Print.cpp.o)
                                                  ./Libraries/Wire/Wire.cpp.o
__d2b                                             c:/arduino/hardware/tools/g++_arm_none_eabi/bin/../lib/gcc/arm-none-eabi/4.4.1/../../../../arm-none-eabi/lib/thumb2\libc.a(lib_a-mprec.o)
                                                  c:/arduino/hardware/tools/g++_arm_none_eabi/bin/../lib/gcc/arm-none-eabi/4.4.1/../../../../arm-none-eabi/lib/thumb2\libc.a(lib_a-dtoa.o)
                                                  c:/arduino/hardware/tools/g++_arm_none_eabi/bin/../lib/gcc/arm-none-eabi/4.4.1/../../../../arm-none-eabi/lib/thumb2\libc.a(lib_a-strtod.o)
__divdf3                                          c:/arduino/hardware/tools/g++_arm_none_eabi/bin/../lib/gcc/arm-none-eabi/4.4.1/thumb2\libgcc.a(_arm_muldivdf3.o)
__divdi3                                          c:/arduino/hardware/tools/g++_arm_none_eabi/bin/../lib/gcc/arm-none-eabi/4.4.1/thumb2\libgcc.a(_divdi3.o)
                                                  c:/arduino/hardware/tools/g++_arm_none_eabi/bin/../lib/gcc/arm-none-eabi/4.4.1/thumb2\libgcc.a(bpabi.o)
__divsf3                                          c:/arduino/hardware/tools/g++_arm_none_eabi/bin/../lib/gcc/arm-none-eabi/4.4.1/thumb2\libgcc.a(_arm_muldivsf3.o)
__dso_handle                                      c:/arduino/hardware/tools/g++_arm_none_eabi/bin/../lib/gcc/arm-none-eabi/4.4.1/thumb2/crtbegin.o
__eqdf2                                           c:/arduino/hardware/tools/g++_arm_none_eabi/bin/../lib/gcc/arm-none-eabi/4.4.1/thumb2\libgcc.a(_arm_cmpdf2.o)
__eqsf2                                           c:/arduino/hardware/tools/g++_arm_none_eabi/bin/../lib/gcc/arm-none-eabi/4.4.1/thumb2\libgcc.a(_arm_cmpsf2.o)
__extendsfdf2                                     c:/arduino/hardware/tools/g++_arm_none_eabi/bin/../lib/gcc/arm-none-eabi/4.4.1/thumb2\libgcc.a(_arm_addsubdf3.o)
__fixdfsi                                         c:/arduino/hardware/tools/g++_arm_none_eabi/bin/../lib/gcc/arm-none-eabi/4.4.1/thumb2\libgcc.a(_arm_fixdfsi.o)
__fixunsdfsi                                      c:/arduino/hardware/tools/g++_arm_none_eabi/bin/../lib/gcc/arm-none-eabi/4.4.1/thumb2\libgcc.a(_arm_fixunsdfsi.o)
__floatdidf                                       c:/arduino/hardware/tools/g++_arm_none_eabi/bin/../lib/gcc/arm-none-eabi/4.4.1/thumb2\libgcc.a(_arm_addsubdf3.o)
__floatdisf                                       c:/arduino/hardware/tools/g++_arm_none_eabi/bin/../lib/gcc/arm-none-eabi/4.4.1/thumb2\libgcc.a(_arm_addsubsf3.o)
__floatsidf                                       c:/arduino/hardware/tools/g++_arm_none_eabi/bin/../lib/gcc/arm-none-eabi/4.4.1/thumb2\libgcc.a(_arm_addsubdf3.o)
__floatsisf                                       c:/arduino/hardware/tools/g++_arm_none_eabi/bin/../lib/gcc/arm-none-eabi/4.4.1/thumb2\libgcc.a(_arm_addsubsf3.o)
__floatundidf                                     c:/arduino/hardware/tools/g++_arm_none_eabi/bin/../lib/gcc/arm-none-eabi/4.4.1/thumb2\libgcc.a(_arm_addsubdf3.o)
__floatundisf                                     c:/arduino/hardware/tools/g++_arm_none_eabi/bin/../lib/gcc/arm-none-eabi/4.4.1/thumb2\libgcc.a(_arm_addsubsf3.o)
__floatunsidf                                     c:/arduino/hardware/tools/g++_arm_none_eabi/bin/../lib/gcc/arm-none-eabi/4.4.1/thumb2\libgcc.a(_arm_addsubdf3.o)
__floatunsisf                                     c:/arduino/hardware/tools/g++_arm_none_eabi/bin/../lib/gcc/arm-none-eabi/4.4.1/thumb2\libgcc.a(_arm_addsubsf3.o)
__fp_lock_all                                     c:/arduino/hardware/tools/g++_arm_none_eabi/bin/../lib/gcc/arm-none-eabi/4.4.1/../../../../arm-none-eabi/lib/thumb2\libc.a(lib_a-findfp.o)
__fp_unlock_all                                   c:/arduino/hardware/tools/g++_arm_none_eabi/bin/../lib/gcc/arm-none-eabi/4.4.1/../../../../arm-none-eabi/lib/thumb2\libc.a(lib_a-findfp.o)
__gedf2                                           c:/arduino/hardware/tools/g++_arm_none_eabi/bin/../lib/gcc/arm-none-eabi/4.4.1/thumb2\libgcc.a(_arm_cmpdf2.o)
__gesf2                                           c:/arduino/hardware/tools/g++_arm_none_eabi/bin/../lib/gcc/arm-none-eabi/4.4.1/thumb2\libgcc.a(_arm_cmpsf2.o)
__gethex                                          c:/arduino/hardware/tools/g++_arm_none_eabi/bin/../lib/gcc/arm-none-eabi/4.4.1/../../../../arm-none-eabi/lib/thumb2\libc.a(lib_a-gdtoa-gethex.o)
                                                  c:/arduino/hardware/tools/g++_arm_none_eabi/bin/../lib/gcc/arm-none-eabi/4.4.1/../../../../arm-none-eabi/lib/thumb2\libc.a(lib_a-strtod.o)
__gnu_ldivmod_helper                              c:/arduino/hardware/tools/g++_arm_none_eabi/bin/../lib/gcc/arm-none-eabi/4.4.1/thumb2\libgcc.a(bpabi.o)
__gnu_uldivmod_helper                             c:/arduino/hardware/tools/g++_arm_none_eabi/bin/../lib/gcc/arm-none-eabi/4.4.1/thumb2\libgcc.a(bpabi.o)
                                                  c:/arduino/hardware/tools/g++_arm_none_eabi/bin/../lib/gcc/arm-none-eabi/4.4.1/thumb2\libgcc.a(_aeabi_uldivmod.o)
__gtdf2                                           c:/arduino/hardware/tools/g++_arm_none_eabi/bin/../lib/gcc/arm-none-eabi/4.4.1/thumb2\libgcc.a(_arm_cmpdf2.o)
__gtsf2                                           c:/arduino/hardware/tools/g++_arm_none_eabi/bin/../lib/gcc/arm-none-eabi/4.4.1/thumb2\libgcc.a(_arm_cmpsf2.o)
__hexdig                                          c:/arduino/hardware/tools/g++_arm_none_eabi/bin/../lib/gcc/arm-none-eabi/4.4.1/../../../../arm-none-eabi/lib/thumb2\libc.a(lib_a-gdtoa-hexnan.o)
                                                  c:/arduino/hardware/tools/g++_arm_none_eabi/bin/../lib/gcc/arm-none-eabi/4.4.1/../../../../arm-none-eabi/lib/thumb2\libc.a(lib_a-gdtoa-gethex.o)
__hexdig_init                                     c:/arduino/hardware/tools/g++_arm_none_eabi/bin/../lib/gcc/arm-none-eabi/4.4.1/../../../../arm-none-eabi/lib/thumb2\libc.a(lib_a-gdtoa-gethex.o)
                                                  c:/arduino/hardware/tools/g++_arm_none_eabi/bin/../lib/gcc/arm-none-eabi/4.4.1/../../../../arm-none-eabi/lib/thumb2\libc.a(lib_a-gdtoa-hexnan.o)
__hexnan                                          c:/arduino/hardware/tools/g++_arm_none_eabi/bin/../lib/gcc/arm-none-eabi/4.4.1/../../../../arm-none-eabi/lib/thumb2\libc.a(lib_a-gdtoa-hexnan.o)
                                                  c:/arduino/hardware/tools/g++_arm_none_eabi/bin/../lib/gcc/arm-none-eabi/4.4.1/../../../../arm-none-eabi/lib/thumb2\libc.a(lib_a-strtod.o)
__hi0bits                                         c:/arduino/hardware/tools/g++_arm_none_eabi/bin/../lib/gcc/arm-none-eabi/4.4.1/../../../../arm-none-eabi/lib/thumb2\libc.a(lib_a-mprec.o)
                                                  c:/arduino/hardware/tools/g++_arm_none_eabi/bin/../lib/gcc/arm-none-eabi/4.4.1/../../../../arm-none-eabi/lib/thumb2\libc.a(lib_a-gdtoa-gethex.o)
                                                  c:/arduino/hardware/tools/g++_arm_none_eabi/bin/../lib/gcc/arm-none-eabi/4.4.1/../../../../arm-none-eabi/lib/thumb2\libc.a(lib_a-dtoa.o)
__i2b                                             c:/arduino/hardware/tools/g++_arm_none_eabi/bin/../lib/gcc/arm-none-eabi/4.4.1/../../../../arm-none-eabi/lib/thumb2\libc.a(lib_a-mprec.o)
                                                  c:/arduino/hardware/tools/g++_arm_none_eabi/bin/../lib/gcc/arm-none-eabi/4.4.1/../../../../arm-none-eabi/lib/thumb2\libc.a(lib_a-dtoa.o)
                                                  c:/arduino/hardware/tools/g++_arm_none_eabi/bin/../lib/gcc/arm-none-eabi/4.4.1/../../../../arm-none-eabi/lib/thumb2\libc.a(lib_a-strtod.o)
__init_array_end                                  c:/arduino/hardware/tools/g++_arm_none_eabi/bin/../lib/gcc/arm-none-eabi/4.4.1/../../../../arm-none-eabi/lib/thumb2\libc.a(lib_a-init.o)
__init_array_start                                c:/arduino/hardware/tools/g++_arm_none_eabi/bin/../lib/gcc/arm-none-eabi/4.4.1/../../../../arm-none-eabi/lib/thumb2\libc.a(lib_a-init.o)
__isinfd                                          c:/arduino/hardware/tools/g++_arm_none_eabi/bin/../lib/gcc/arm-none-eabi/4.4.1/../../../../arm-none-eabi/lib/thumb2\libm.a(lib_a-s_isinfd.o)
                                                  c:/arduino/hardware/tools/g++_arm_none_eabi/bin/../lib/gcc/arm-none-eabi/4.4.1/../../../../arm-none-eabi/lib/thumb2\libc.a(lib_a-svfprintf.o)
                                                  C:/Users/jon_000/Git/ALFRED_CORE/Release/arduino.ar(Print.cpp.o)
__isnand                                          c:/arduino/hardware/tools/g++_arm_none_eabi/bin/../lib/gcc/arm-none-eabi/4.4.1/../../../../arm-none-eabi/lib/thumb2\libm.a(lib_a-s_isnand.o)
                                                  c:/arduino/hardware/tools/g++_arm_none_eabi/bin/../lib/gcc/arm-none-eabi/4.4.1/../../../../arm-none-eabi/lib/thumb2\libc.a(lib_a-svfprintf.o)
                                                  C:/Users/jon_000/Git/ALFRED_CORE/Release/arduino.ar(Print.cpp.o)
__lc_ctype                                        c:/arduino/hardware/tools/g++_arm_none_eabi/bin/../lib/gcc/arm-none-eabi/4.4.1/../../../../arm-none-eabi/lib/thumb2\libc.a(lib_a-locale.o)
__ledf2                                           c:/arduino/hardware/tools/g++_arm_none_eabi/bin/../lib/gcc/arm-none-eabi/4.4.1/thumb2\libgcc.a(_arm_cmpdf2.o)
__lesf2                                           c:/arduino/hardware/tools/g++_arm_none_eabi/bin/../lib/gcc/arm-none-eabi/4.4.1/thumb2\libgcc.a(_arm_cmpsf2.o)
__libc_init_array                                 c:/arduino/hardware/tools/g++_arm_none_eabi/bin/../lib/gcc/arm-none-eabi/4.4.1/../../../../arm-none-eabi/lib/thumb2\libc.a(lib_a-init.o)
                                                  C:/Users/jon_000/Git/ALFRED_CORE/Release/arduino.ar(variant.cpp.o)
__lo0bits                                         c:/arduino/hardware/tools/g++_arm_none_eabi/bin/../lib/gcc/arm-none-eabi/4.4.1/../../../../arm-none-eabi/lib/thumb2\libc.a(lib_a-mprec.o)
__locale_charset                                  c:/arduino/hardware/tools/g++_arm_none_eabi/bin/../lib/gcc/arm-none-eabi/4.4.1/../../../../arm-none-eabi/lib/thumb2\libc.a(lib_a-locale.o)
__lshift                                          c:/arduino/hardware/tools/g++_arm_none_eabi/bin/../lib/gcc/arm-none-eabi/4.4.1/../../../../arm-none-eabi/lib/thumb2\libc.a(lib_a-mprec.o)
                                                  c:/arduino/hardware/tools/g++_arm_none_eabi/bin/../lib/gcc/arm-none-eabi/4.4.1/../../../../arm-none-eabi/lib/thumb2\libc.a(lib_a-gdtoa-gethex.o)
                                                  c:/arduino/hardware/tools/g++_arm_none_eabi/bin/../lib/gcc/arm-none-eabi/4.4.1/../../../../arm-none-eabi/lib/thumb2\libc.a(lib_a-dtoa.o)
                                                  c:/arduino/hardware/tools/g++_arm_none_eabi/bin/../lib/gcc/arm-none-eabi/4.4.1/../../../../arm-none-eabi/lib/thumb2\libc.a(lib_a-strtod.o)
__ltdf2                                           c:/arduino/hardware/tools/g++_arm_none_eabi/bin/../lib/gcc/arm-none-eabi/4.4.1/thumb2\libgcc.a(_arm_cmpdf2.o)
__ltsf2                                           c:/arduino/hardware/tools/g++_arm_none_eabi/bin/../lib/gcc/arm-none-eabi/4.4.1/thumb2\libgcc.a(_arm_cmpsf2.o)
__malloc_av_                                      c:/arduino/hardware/tools/g++_arm_none_eabi/bin/../lib/gcc/arm-none-eabi/4.4.1/../../../../arm-none-eabi/lib/thumb2\libc.a(lib_a-mallocr.o)
                                                  c:/arduino/hardware/tools/g++_arm_none_eabi/bin/../lib/gcc/arm-none-eabi/4.4.1/../../../../arm-none-eabi/lib/thumb2\libc.a(lib_a-freer.o)
                                                  c:/arduino/hardware/tools/g++_arm_none_eabi/bin/../lib/gcc/arm-none-eabi/4.4.1/../../../../arm-none-eabi/lib/thumb2\libc.a(lib_a-reallocr.o)
__malloc_current_mallinfo                         c:/arduino/hardware/tools/g++_arm_none_eabi/bin/../lib/gcc/arm-none-eabi/4.4.1/../../../../arm-none-eabi/lib/thumb2\libc.a(lib_a-mallocr.o)
                                                  c:/arduino/hardware/tools/g++_arm_none_eabi/bin/../lib/gcc/arm-none-eabi/4.4.1/../../../../arm-none-eabi/lib/thumb2\libc.a(lib_a-freer.o)
__malloc_lock                                     c:/arduino/hardware/tools/g++_arm_none_eabi/bin/../lib/gcc/arm-none-eabi/4.4.1/../../../../arm-none-eabi/lib/thumb2\libc.a(lib_a-mlock.o)
                                                  c:/arduino/hardware/tools/g++_arm_none_eabi/bin/../lib/gcc/arm-none-eabi/4.4.1/../../../../arm-none-eabi/lib/thumb2\libc.a(lib_a-freer.o)
                                                  c:/arduino/hardware/tools/g++_arm_none_eabi/bin/../lib/gcc/arm-none-eabi/4.4.1/../../../../arm-none-eabi/lib/thumb2\libc.a(lib_a-reallocr.o)
                                                  c:/arduino/hardware/tools/g++_arm_none_eabi/bin/../lib/gcc/arm-none-eabi/4.4.1/../../../../arm-none-eabi/lib/thumb2\libc.a(lib_a-mallocr.o)
__malloc_max_sbrked_mem                           c:/arduino/hardware/tools/g++_arm_none_eabi/bin/../lib/gcc/arm-none-eabi/4.4.1/../../../../arm-none-eabi/lib/thumb2\libc.a(lib_a-mallocr.o)
__malloc_max_total_mem                            c:/arduino/hardware/tools/g++_arm_none_eabi/bin/../lib/gcc/arm-none-eabi/4.4.1/../../../../arm-none-eabi/lib/thumb2\libc.a(lib_a-mallocr.o)
__malloc_sbrk_base                                c:/arduino/hardware/tools/g++_arm_none_eabi/bin/../lib/gcc/arm-none-eabi/4.4.1/../../../../arm-none-eabi/lib/thumb2\libc.a(lib_a-mallocr.o)
                                                  c:/arduino/hardware/tools/g++_arm_none_eabi/bin/../lib/gcc/arm-none-eabi/4.4.1/../../../../arm-none-eabi/lib/thumb2\libc.a(lib_a-freer.o)
__malloc_top_pad                                  c:/arduino/hardware/tools/g++_arm_none_eabi/bin/../lib/gcc/arm-none-eabi/4.4.1/../../../../arm-none-eabi/lib/thumb2\libc.a(lib_a-mallocr.o)
                                                  c:/arduino/hardware/tools/g++_arm_none_eabi/bin/../lib/gcc/arm-none-eabi/4.4.1/../../../../arm-none-eabi/lib/thumb2\libc.a(lib_a-freer.o)
__malloc_trim_threshold                           c:/arduino/hardware/tools/g++_arm_none_eabi/bin/../lib/gcc/arm-none-eabi/4.4.1/../../../../arm-none-eabi/lib/thumb2\libc.a(lib_a-mallocr.o)
                                                  c:/arduino/hardware/tools/g++_arm_none_eabi/bin/../lib/gcc/arm-none-eabi/4.4.1/../../../../arm-none-eabi/lib/thumb2\libc.a(lib_a-freer.o)
__malloc_unlock                                   c:/arduino/hardware/tools/g++_arm_none_eabi/bin/../lib/gcc/arm-none-eabi/4.4.1/../../../../arm-none-eabi/lib/thumb2\libc.a(lib_a-mlock.o)
                                                  c:/arduino/hardware/tools/g++_arm_none_eabi/bin/../lib/gcc/arm-none-eabi/4.4.1/../../../../arm-none-eabi/lib/thumb2\libc.a(lib_a-freer.o)
                                                  c:/arduino/hardware/tools/g++_arm_none_eabi/bin/../lib/gcc/arm-none-eabi/4.4.1/../../../../arm-none-eabi/lib/thumb2\libc.a(lib_a-reallocr.o)
                                                  c:/arduino/hardware/tools/g++_arm_none_eabi/bin/../lib/gcc/arm-none-eabi/4.4.1/../../../../arm-none-eabi/lib/thumb2\libc.a(lib_a-mallocr.o)
__mb_cur_max                                      c:/arduino/hardware/tools/g++_arm_none_eabi/bin/../lib/gcc/arm-none-eabi/4.4.1/../../../../arm-none-eabi/lib/thumb2\libc.a(lib_a-locale.o)
__mcmp                                            c:/arduino/hardware/tools/g++_arm_none_eabi/bin/../lib/gcc/arm-none-eabi/4.4.1/../../../../arm-none-eabi/lib/thumb2\libc.a(lib_a-mprec.o)
                                                  c:/arduino/hardware/tools/g++_arm_none_eabi/bin/../lib/gcc/arm-none-eabi/4.4.1/../../../../arm-none-eabi/lib/thumb2\libc.a(lib_a-dtoa.o)
                                                  c:/arduino/hardware/tools/g++_arm_none_eabi/bin/../lib/gcc/arm-none-eabi/4.4.1/../../../../arm-none-eabi/lib/thumb2\libc.a(lib_a-strtod.o)
__mdiff                                           c:/arduino/hardware/tools/g++_arm_none_eabi/bin/../lib/gcc/arm-none-eabi/4.4.1/../../../../arm-none-eabi/lib/thumb2\libc.a(lib_a-mprec.o)
                                                  c:/arduino/hardware/tools/g++_arm_none_eabi/bin/../lib/gcc/arm-none-eabi/4.4.1/../../../../arm-none-eabi/lib/thumb2\libc.a(lib_a-dtoa.o)
                                                  c:/arduino/hardware/tools/g++_arm_none_eabi/bin/../lib/gcc/arm-none-eabi/4.4.1/../../../../arm-none-eabi/lib/thumb2\libc.a(lib_a-strtod.o)
__mlocale_changed                                 c:/arduino/hardware/tools/g++_arm_none_eabi/bin/../lib/gcc/arm-none-eabi/4.4.1/../../../../arm-none-eabi/lib/thumb2\libc.a(lib_a-locale.o)
__mprec_bigtens                                   c:/arduino/hardware/tools/g++_arm_none_eabi/bin/../lib/gcc/arm-none-eabi/4.4.1/../../../../arm-none-eabi/lib/thumb2\libc.a(lib_a-mprec.o)
                                                  c:/arduino/hardware/tools/g++_arm_none_eabi/bin/../lib/gcc/arm-none-eabi/4.4.1/../../../../arm-none-eabi/lib/thumb2\libc.a(lib_a-dtoa.o)
                                                  c:/arduino/hardware/tools/g++_arm_none_eabi/bin/../lib/gcc/arm-none-eabi/4.4.1/../../../../arm-none-eabi/lib/thumb2\libc.a(lib_a-strtod.o)
__mprec_tens                                      c:/arduino/hardware/tools/g++_arm_none_eabi/bin/../lib/gcc/arm-none-eabi/4.4.1/../../../../arm-none-eabi/lib/thumb2\libc.a(lib_a-mprec.o)
                                                  c:/arduino/hardware/tools/g++_arm_none_eabi/bin/../lib/gcc/arm-none-eabi/4.4.1/../../../../arm-none-eabi/lib/thumb2\libc.a(lib_a-dtoa.o)
                                                  c:/arduino/hardware/tools/g++_arm_none_eabi/bin/../lib/gcc/arm-none-eabi/4.4.1/../../../../arm-none-eabi/lib/thumb2\libc.a(lib_a-strtod.o)
__mprec_tinytens                                  c:/arduino/hardware/tools/g++_arm_none_eabi/bin/../lib/gcc/arm-none-eabi/4.4.1/../../../../arm-none-eabi/lib/thumb2\libc.a(lib_a-mprec.o)
__muldf3                                          c:/arduino/hardware/tools/g++_arm_none_eabi/bin/../lib/gcc/arm-none-eabi/4.4.1/thumb2\libgcc.a(_arm_muldivdf3.o)
__mulsf3                                          c:/arduino/hardware/tools/g++_arm_none_eabi/bin/../lib/gcc/arm-none-eabi/4.4.1/thumb2\libgcc.a(_arm_muldivsf3.o)
__multadd                                         c:/arduino/hardware/tools/g++_arm_none_eabi/bin/../lib/gcc/arm-none-eabi/4.4.1/../../../../arm-none-eabi/lib/thumb2\libc.a(lib_a-mprec.o)
                                                  c:/arduino/hardware/tools/g++_arm_none_eabi/bin/../lib/gcc/arm-none-eabi/4.4.1/../../../../arm-none-eabi/lib/thumb2\libc.a(lib_a-dtoa.o)
__multiply                                        c:/arduino/hardware/tools/g++_arm_none_eabi/bin/../lib/gcc/arm-none-eabi/4.4.1/../../../../arm-none-eabi/lib/thumb2\libc.a(lib_a-mprec.o)
                                                  c:/arduino/hardware/tools/g++_arm_none_eabi/bin/../lib/gcc/arm-none-eabi/4.4.1/../../../../arm-none-eabi/lib/thumb2\libc.a(lib_a-dtoa.o)
                                                  c:/arduino/hardware/tools/g++_arm_none_eabi/bin/../lib/gcc/arm-none-eabi/4.4.1/../../../../arm-none-eabi/lib/thumb2\libc.a(lib_a-strtod.o)
__nedf2                                           c:/arduino/hardware/tools/g++_arm_none_eabi/bin/../lib/gcc/arm-none-eabi/4.4.1/thumb2\libgcc.a(_arm_cmpdf2.o)
__nesf2                                           c:/arduino/hardware/tools/g++_arm_none_eabi/bin/../lib/gcc/arm-none-eabi/4.4.1/thumb2\libgcc.a(_arm_cmpsf2.o)
__nlocale_changed                                 c:/arduino/hardware/tools/g++_arm_none_eabi/bin/../lib/gcc/arm-none-eabi/4.4.1/../../../../arm-none-eabi/lib/thumb2\libc.a(lib_a-locale.o)
__pow5mult                                        c:/arduino/hardware/tools/g++_arm_none_eabi/bin/../lib/gcc/arm-none-eabi/4.4.1/../../../../arm-none-eabi/lib/thumb2\libc.a(lib_a-mprec.o)
                                                  c:/arduino/hardware/tools/g++_arm_none_eabi/bin/../lib/gcc/arm-none-eabi/4.4.1/../../../../arm-none-eabi/lib/thumb2\libc.a(lib_a-dtoa.o)
                                                  c:/arduino/hardware/tools/g++_arm_none_eabi/bin/../lib/gcc/arm-none-eabi/4.4.1/../../../../arm-none-eabi/lib/thumb2\libc.a(lib_a-strtod.o)
__preinit_array_end                               c:/arduino/hardware/tools/g++_arm_none_eabi/bin/../lib/gcc/arm-none-eabi/4.4.1/../../../../arm-none-eabi/lib/thumb2\libc.a(lib_a-init.o)
__preinit_array_start                             c:/arduino/hardware/tools/g++_arm_none_eabi/bin/../lib/gcc/arm-none-eabi/4.4.1/../../../../arm-none-eabi/lib/thumb2\libc.a(lib_a-init.o)
__ratio                                           c:/arduino/hardware/tools/g++_arm_none_eabi/bin/../lib/gcc/arm-none-eabi/4.4.1/../../../../arm-none-eabi/lib/thumb2\libc.a(lib_a-mprec.o)
                                                  c:/arduino/hardware/tools/g++_arm_none_eabi/bin/../lib/gcc/arm-none-eabi/4.4.1/../../../../arm-none-eabi/lib/thumb2\libc.a(lib_a-strtod.o)
__s2b                                             c:/arduino/hardware/tools/g++_arm_none_eabi/bin/../lib/gcc/arm-none-eabi/4.4.1/../../../../arm-none-eabi/lib/thumb2\libc.a(lib_a-mprec.o)
                                                  c:/arduino/hardware/tools/g++_arm_none_eabi/bin/../lib/gcc/arm-none-eabi/4.4.1/../../../../arm-none-eabi/lib/thumb2\libc.a(lib_a-strtod.o)
__sclose                                          c:/arduino/hardware/tools/g++_arm_none_eabi/bin/../lib/gcc/arm-none-eabi/4.4.1/../../../../arm-none-eabi/lib/thumb2\libc.a(lib_a-stdio.o)
                                                  c:/arduino/hardware/tools/g++_arm_none_eabi/bin/../lib/gcc/arm-none-eabi/4.4.1/../../../../arm-none-eabi/lib/thumb2\libc.a(lib_a-findfp.o)
__sf_fake_stderr                                  c:/arduino/hardware/tools/g++_arm_none_eabi/bin/../lib/gcc/arm-none-eabi/4.4.1/../../../../arm-none-eabi/lib/thumb2\libc.a(lib_a-findfp.o)
                                                  c:/arduino/hardware/tools/g++_arm_none_eabi/bin/../lib/gcc/arm-none-eabi/4.4.1/../../../../arm-none-eabi/lib/thumb2\libc.a(lib_a-fclose.o)
                                                  c:/arduino/hardware/tools/g++_arm_none_eabi/bin/../lib/gcc/arm-none-eabi/4.4.1/../../../../arm-none-eabi/lib/thumb2\libc.a(lib_a-fflush.o)
                                                  c:/arduino/hardware/tools/g++_arm_none_eabi/bin/../lib/gcc/arm-none-eabi/4.4.1/../../../../arm-none-eabi/lib/thumb2\libc.a(lib_a-wsetup.o)
                                                  c:/arduino/hardware/tools/g++_arm_none_eabi/bin/../lib/gcc/arm-none-eabi/4.4.1/../../../../arm-none-eabi/lib/thumb2\libc.a(lib_a-vfiprintf.o)
                                                  c:/arduino/hardware/tools/g++_arm_none_eabi/bin/../lib/gcc/arm-none-eabi/4.4.1/../../../../arm-none-eabi/lib/thumb2\libc.a(lib_a-impure.o)
__sf_fake_stdin                                   c:/arduino/hardware/tools/g++_arm_none_eabi/bin/../lib/gcc/arm-none-eabi/4.4.1/../../../../arm-none-eabi/lib/thumb2\libc.a(lib_a-findfp.o)
                                                  c:/arduino/hardware/tools/g++_arm_none_eabi/bin/../lib/gcc/arm-none-eabi/4.4.1/../../../../arm-none-eabi/lib/thumb2\libc.a(lib_a-fclose.o)
                                                  c:/arduino/hardware/tools/g++_arm_none_eabi/bin/../lib/gcc/arm-none-eabi/4.4.1/../../../../arm-none-eabi/lib/thumb2\libc.a(lib_a-fflush.o)
                                                  c:/arduino/hardware/tools/g++_arm_none_eabi/bin/../lib/gcc/arm-none-eabi/4.4.1/../../../../arm-none-eabi/lib/thumb2\libc.a(lib_a-wsetup.o)
                                                  c:/arduino/hardware/tools/g++_arm_none_eabi/bin/../lib/gcc/arm-none-eabi/4.4.1/../../../../arm-none-eabi/lib/thumb2\libc.a(lib_a-vfiprintf.o)
                                                  c:/arduino/hardware/tools/g++_arm_none_eabi/bin/../lib/gcc/arm-none-eabi/4.4.1/../../../../arm-none-eabi/lib/thumb2\libc.a(lib_a-impure.o)
__sf_fake_stdout                                  c:/arduino/hardware/tools/g++_arm_none_eabi/bin/../lib/gcc/arm-none-eabi/4.4.1/../../../../arm-none-eabi/lib/thumb2\libc.a(lib_a-findfp.o)
                                                  c:/arduino/hardware/tools/g++_arm_none_eabi/bin/../lib/gcc/arm-none-eabi/4.4.1/../../../../arm-none-eabi/lib/thumb2\libc.a(lib_a-fclose.o)
                                                  c:/arduino/hardware/tools/g++_arm_none_eabi/bin/../lib/gcc/arm-none-eabi/4.4.1/../../../../arm-none-eabi/lib/thumb2\libc.a(lib_a-fflush.o)
                                                  c:/arduino/hardware/tools/g++_arm_none_eabi/bin/../lib/gcc/arm-none-eabi/4.4.1/../../../../arm-none-eabi/lib/thumb2\libc.a(lib_a-wsetup.o)
                                                  c:/arduino/hardware/tools/g++_arm_none_eabi/bin/../lib/gcc/arm-none-eabi/4.4.1/../../../../arm-none-eabi/lib/thumb2\libc.a(lib_a-vfiprintf.o)
                                                  c:/arduino/hardware/tools/g++_arm_none_eabi/bin/../lib/gcc/arm-none-eabi/4.4.1/../../../../arm-none-eabi/lib/thumb2\libc.a(lib_a-impure.o)
__sfmoreglue                                      c:/arduino/hardware/tools/g++_arm_none_eabi/bin/../lib/gcc/arm-none-eabi/4.4.1/../../../../arm-none-eabi/lib/thumb2\libc.a(lib_a-findfp.o)
__sfp                                             c:/arduino/hardware/tools/g++_arm_none_eabi/bin/../lib/gcc/arm-none-eabi/4.4.1/../../../../arm-none-eabi/lib/thumb2\libc.a(lib_a-findfp.o)
__sfp_lock_acquire                                c:/arduino/hardware/tools/g++_arm_none_eabi/bin/../lib/gcc/arm-none-eabi/4.4.1/../../../../arm-none-eabi/lib/thumb2\libc.a(lib_a-findfp.o)
                                                  c:/arduino/hardware/tools/g++_arm_none_eabi/bin/../lib/gcc/arm-none-eabi/4.4.1/../../../../arm-none-eabi/lib/thumb2\libc.a(lib_a-fclose.o)
                                                  c:/arduino/hardware/tools/g++_arm_none_eabi/bin/../lib/gcc/arm-none-eabi/4.4.1/../../../../arm-none-eabi/lib/thumb2\libc.a(lib_a-fwalk.o)
__sfp_lock_release                                c:/arduino/hardware/tools/g++_arm_none_eabi/bin/../lib/gcc/arm-none-eabi/4.4.1/../../../../arm-none-eabi/lib/thumb2\libc.a(lib_a-findfp.o)
                                                  c:/arduino/hardware/tools/g++_arm_none_eabi/bin/../lib/gcc/arm-none-eabi/4.4.1/../../../../arm-none-eabi/lib/thumb2\libc.a(lib_a-fclose.o)
                                                  c:/arduino/hardware/tools/g++_arm_none_eabi/bin/../lib/gcc/arm-none-eabi/4.4.1/../../../../arm-none-eabi/lib/thumb2\libc.a(lib_a-fwalk.o)
__sfvwrite_r                                      c:/arduino/hardware/tools/g++_arm_none_eabi/bin/../lib/gcc/arm-none-eabi/4.4.1/../../../../arm-none-eabi/lib/thumb2\libc.a(lib_a-fvwrite.o)
                                                  c:/arduino/hardware/tools/g++_arm_none_eabi/bin/../lib/gcc/arm-none-eabi/4.4.1/../../../../arm-none-eabi/lib/thumb2\libc.a(lib_a-vfiprintf.o)
__sigtramp                                        c:/arduino/hardware/tools/g++_arm_none_eabi/bin/../lib/gcc/arm-none-eabi/4.4.1/../../../../arm-none-eabi/lib/thumb2\libc.a(lib_a-signal.o)
__sigtramp_r                                      c:/arduino/hardware/tools/g++_arm_none_eabi/bin/../lib/gcc/arm-none-eabi/4.4.1/../../../../arm-none-eabi/lib/thumb2\libc.a(lib_a-signal.o)
__sinit                                           c:/arduino/hardware/tools/g++_arm_none_eabi/bin/../lib/gcc/arm-none-eabi/4.4.1/../../../../arm-none-eabi/lib/thumb2\libc.a(lib_a-findfp.o)
                                                  c:/arduino/hardware/tools/g++_arm_none_eabi/bin/../lib/gcc/arm-none-eabi/4.4.1/../../../../arm-none-eabi/lib/thumb2\libc.a(lib_a-fclose.o)
                                                  c:/arduino/hardware/tools/g++_arm_none_eabi/bin/../lib/gcc/arm-none-eabi/4.4.1/../../../../arm-none-eabi/lib/thumb2\libc.a(lib_a-fflush.o)
                                                  c:/arduino/hardware/tools/g++_arm_none_eabi/bin/../lib/gcc/arm-none-eabi/4.4.1/../../../../arm-none-eabi/lib/thumb2\libc.a(lib_a-wsetup.o)
                                                  c:/arduino/hardware/tools/g++_arm_none_eabi/bin/../lib/gcc/arm-none-eabi/4.4.1/../../../../arm-none-eabi/lib/thumb2\libc.a(lib_a-vfiprintf.o)
                                                  c:/arduino/hardware/tools/g++_arm_none_eabi/bin/../lib/gcc/arm-none-eabi/4.4.1/../../../../arm-none-eabi/lib/thumb2\libc.a(lib_a-iprintf.o)
__sinit_lock_acquire                              c:/arduino/hardware/tools/g++_arm_none_eabi/bin/../lib/gcc/arm-none-eabi/4.4.1/../../../../arm-none-eabi/lib/thumb2\libc.a(lib_a-findfp.o)
__sinit_lock_release                              c:/arduino/hardware/tools/g++_arm_none_eabi/bin/../lib/gcc/arm-none-eabi/4.4.1/../../../../arm-none-eabi/lib/thumb2\libc.a(lib_a-findfp.o)
__smakebuf_r                                      c:/arduino/hardware/tools/g++_arm_none_eabi/bin/../lib/gcc/arm-none-eabi/4.4.1/../../../../arm-none-eabi/lib/thumb2\libc.a(lib_a-makebuf.o)
                                                  c:/arduino/hardware/tools/g++_arm_none_eabi/bin/../lib/gcc/arm-none-eabi/4.4.1/../../../../arm-none-eabi/lib/thumb2\libc.a(lib_a-wsetup.o)
__sread                                           c:/arduino/hardware/tools/g++_arm_none_eabi/bin/../lib/gcc/arm-none-eabi/4.4.1/../../../../arm-none-eabi/lib/thumb2\libc.a(lib_a-stdio.o)
                                                  c:/arduino/hardware/tools/g++_arm_none_eabi/bin/../lib/gcc/arm-none-eabi/4.4.1/../../../../arm-none-eabi/lib/thumb2\libc.a(lib_a-findfp.o)
__sseek                                           c:/arduino/hardware/tools/g++_arm_none_eabi/bin/../lib/gcc/arm-none-eabi/4.4.1/../../../../arm-none-eabi/lib/thumb2\libc.a(lib_a-stdio.o)
                                                  c:/arduino/hardware/tools/g++_arm_none_eabi/bin/../lib/gcc/arm-none-eabi/4.4.1/../../../../arm-none-eabi/lib/thumb2\libc.a(lib_a-makebuf.o)
                                                  c:/arduino/hardware/tools/g++_arm_none_eabi/bin/../lib/gcc/arm-none-eabi/4.4.1/../../../../arm-none-eabi/lib/thumb2\libc.a(lib_a-findfp.o)
__subdf3                                          c:/arduino/hardware/tools/g++_arm_none_eabi/bin/../lib/gcc/arm-none-eabi/4.4.1/thumb2\libgcc.a(_arm_addsubdf3.o)
__subsf3                                          c:/arduino/hardware/tools/g++_arm_none_eabi/bin/../lib/gcc/arm-none-eabi/4.4.1/thumb2\libgcc.a(_arm_addsubsf3.o)
__swrite                                          c:/arduino/hardware/tools/g++_arm_none_eabi/bin/../lib/gcc/arm-none-eabi/4.4.1/../../../../arm-none-eabi/lib/thumb2\libc.a(lib_a-stdio.o)
                                                  c:/arduino/hardware/tools/g++_arm_none_eabi/bin/../lib/gcc/arm-none-eabi/4.4.1/../../../../arm-none-eabi/lib/thumb2\libc.a(lib_a-findfp.o)
__swsetup_r                                       c:/arduino/hardware/tools/g++_arm_none_eabi/bin/../lib/gcc/arm-none-eabi/4.4.1/../../../../arm-none-eabi/lib/thumb2\libc.a(lib_a-wsetup.o)
                                                  c:/arduino/hardware/tools/g++_arm_none_eabi/bin/../lib/gcc/arm-none-eabi/4.4.1/../../../../arm-none-eabi/lib/thumb2\libc.a(lib_a-fvwrite.o)
                                                  c:/arduino/hardware/tools/g++_arm_none_eabi/bin/../lib/gcc/arm-none-eabi/4.4.1/../../../../arm-none-eabi/lib/thumb2\libc.a(lib_a-vfiprintf.o)
__truncdfsf2                                      c:/arduino/hardware/tools/g++_arm_none_eabi/bin/../lib/gcc/arm-none-eabi/4.4.1/thumb2\libgcc.a(_arm_truncdfsf2.o)
__udivdi3                                         c:/arduino/hardware/tools/g++_arm_none_eabi/bin/../lib/gcc/arm-none-eabi/4.4.1/thumb2\libgcc.a(_udivdi3.o)
                                                  c:/arduino/hardware/tools/g++_arm_none_eabi/bin/../lib/gcc/arm-none-eabi/4.4.1/thumb2\libgcc.a(bpabi.o)
__udivsi3                                         c:/arduino/hardware/tools/g++_arm_none_eabi/bin/../lib/gcc/arm-none-eabi/4.4.1/thumb2\libgcc.a(_udivsi3.o)
__ulp                                             c:/arduino/hardware/tools/g++_arm_none_eabi/bin/../lib/gcc/arm-none-eabi/4.4.1/../../../../arm-none-eabi/lib/thumb2\libc.a(lib_a-mprec.o)
                                                  c:/arduino/hardware/tools/g++_arm_none_eabi/bin/../lib/gcc/arm-none-eabi/4.4.1/../../../../arm-none-eabi/lib/thumb2\libc.a(lib_a-strtod.o)
_asciimap                                         C:/Users/jon_000/Git/ALFRED_CORE/Release/arduino.ar(HID.cpp.o)
_atol_r                                           c:/arduino/hardware/tools/g++_arm_none_eabi/bin/../lib/gcc/arm-none-eabi/4.4.1/../../../../arm-none-eabi/lib/thumb2\libc.a(lib_a-atol.o)
_calloc_r                                         c:/arduino/hardware/tools/g++_arm_none_eabi/bin/../lib/gcc/arm-none-eabi/4.4.1/../../../../arm-none-eabi/lib/thumb2\libc.a(lib_a-callocr.o)
                                                  c:/arduino/hardware/tools/g++_arm_none_eabi/bin/../lib/gcc/arm-none-eabi/4.4.1/../../../../arm-none-eabi/lib/thumb2\libc.a(lib_a-mprec.o)
_cdcComposite                                     C:/Users/jon_000/Git/ALFRED_CORE/Release/arduino.ar(USBCore.cpp.o)
_cend                                             C:/Users/jon_000/Git/ALFRED_CORE/Release/arduino.ar(USBCore.cpp.o)
_cleanup                                          c:/arduino/hardware/tools/g++_arm_none_eabi/bin/../lib/gcc/arm-none-eabi/4.4.1/../../../../arm-none-eabi/lib/thumb2\libc.a(lib_a-findfp.o)
_cleanup_r                                        c:/arduino/hardware/tools/g++_arm_none_eabi/bin/../lib/gcc/arm-none-eabi/4.4.1/../../../../arm-none-eabi/lib/thumb2\libc.a(lib_a-findfp.o)
                                                  c:/arduino/hardware/tools/g++_arm_none_eabi/bin/../lib/gcc/arm-none-eabi/4.4.1/../../../../arm-none-eabi/lib/thumb2\libc.a(lib_a-makebuf.o)
_close                                            C:/Users/jon_000/Git/ALFRED_CORE/Release/arduino/syscalls_sam3.c.o
                                                  c:/arduino/hardware/tools/g++_arm_none_eabi/bin/../lib/gcc/arm-none-eabi/4.4.1/../../../../arm-none-eabi/lib/thumb2\libc.a(lib_a-closer.o)
_close_r                                          c:/arduino/hardware/tools/g++_arm_none_eabi/bin/../lib/gcc/arm-none-eabi/4.4.1/../../../../arm-none-eabi/lib/thumb2\libc.a(lib_a-closer.o)
                                                  c:/arduino/hardware/tools/g++_arm_none_eabi/bin/../lib/gcc/arm-none-eabi/4.4.1/../../../../arm-none-eabi/lib/thumb2\libc.a(lib_a-stdio.o)
_cmark                                            C:/Users/jon_000/Git/ALFRED_CORE/Release/arduino.ar(USBCore.cpp.o)
_ctype_                                           c:/arduino/hardware/tools/g++_arm_none_eabi/bin/../lib/gcc/arm-none-eabi/4.4.1/../../../../arm-none-eabi/lib/thumb2\libc.a(lib_a-ctype_.o)
_dtoa_r                                           c:/arduino/hardware/tools/g++_arm_none_eabi/bin/../lib/gcc/arm-none-eabi/4.4.1/../../../../arm-none-eabi/lib/thumb2\libc.a(lib_a-dtoa.o)
                                                  c:/arduino/hardware/tools/g++_arm_none_eabi/bin/../lib/gcc/arm-none-eabi/4.4.1/../../../../arm-none-eabi/lib/thumb2\libc.a(lib_a-svfprintf.o)
_end                                              C:/Users/jon_000/Git/ALFRED_CORE/Release/arduino/syscalls_sam3.c.o
_erelocate                                        C:/Arduino/hardware/arduino/sam/variants/arduino_due_x/libsam_sam3x8e_gcc_rel.a(startup_sam3xa.o)
_estack                                           C:/Arduino/hardware/arduino/sam/variants/arduino_due_x/libsam_sam3x8e_gcc_rel.a(startup_sam3xa.o)
_etext                                            C:/Arduino/hardware/arduino/sam/variants/arduino_due_x/libsam_sam3x8e_gcc_rel.a(startup_sam3xa.o)
_exit                                             C:/Users/jon_000/Git/ALFRED_CORE/Release/arduino/syscalls_sam3.c.o
                                                  c:/arduino/hardware/tools/g++_arm_none_eabi/bin/../lib/gcc/arm-none-eabi/4.4.1/../../../../arm-none-eabi/lib/thumb2\libc.a(lib_a-abort.o)
_ezero                                            C:/Arduino/hardware/arduino/sam/variants/arduino_due_x/libsam_sam3x8e_gcc_rel.a(startup_sam3xa.o)
_fclose_r                                         c:/arduino/hardware/tools/g++_arm_none_eabi/bin/../lib/gcc/arm-none-eabi/4.4.1/../../../../arm-none-eabi/lib/thumb2\libc.a(lib_a-fclose.o)
_fflush_r                                         c:/arduino/hardware/tools/g++_arm_none_eabi/bin/../lib/gcc/arm-none-eabi/4.4.1/../../../../arm-none-eabi/lib/thumb2\libc.a(lib_a-fflush.o)
                                                  c:/arduino/hardware/tools/g++_arm_none_eabi/bin/../lib/gcc/arm-none-eabi/4.4.1/../../../../arm-none-eabi/lib/thumb2\libc.a(lib_a-fclose.o)
                                                  c:/arduino/hardware/tools/g++_arm_none_eabi/bin/../lib/gcc/arm-none-eabi/4.4.1/../../../../arm-none-eabi/lib/thumb2\libc.a(lib_a-fvwrite.o)
                                                  c:/arduino/hardware/tools/g++_arm_none_eabi/bin/../lib/gcc/arm-none-eabi/4.4.1/../../../../arm-none-eabi/lib/thumb2\libc.a(lib_a-vfiprintf.o)
_fini                                             c:/arduino/hardware/tools/g++_arm_none_eabi/bin/../lib/gcc/arm-none-eabi/4.4.1/thumb2/crti.o
_fiprintf_r                                       c:/arduino/hardware/tools/g++_arm_none_eabi/bin/../lib/gcc/arm-none-eabi/4.4.1/../../../../arm-none-eabi/lib/thumb2\libc.a(lib_a-fiprintf.o)
_free_r                                           c:/arduino/hardware/tools/g++_arm_none_eabi/bin/../lib/gcc/arm-none-eabi/4.4.1/../../../../arm-none-eabi/lib/thumb2\libc.a(lib_a-freer.o)
                                                  c:/arduino/hardware/tools/g++_arm_none_eabi/bin/../lib/gcc/arm-none-eabi/4.4.1/../../../../arm-none-eabi/lib/thumb2\libc.a(lib_a-fclose.o)
                                                  c:/arduino/hardware/tools/g++_arm_none_eabi/bin/../lib/gcc/arm-none-eabi/4.4.1/../../../../arm-none-eabi/lib/thumb2\libc.a(lib_a-reent.o)
                                                  c:/arduino/hardware/tools/g++_arm_none_eabi/bin/../lib/gcc/arm-none-eabi/4.4.1/../../../../arm-none-eabi/lib/thumb2\libc.a(lib_a-fvwrite.o)
                                                  c:/arduino/hardware/tools/g++_arm_none_eabi/bin/../lib/gcc/arm-none-eabi/4.4.1/../../../../arm-none-eabi/lib/thumb2\libc.a(lib_a-fflush.o)
                                                  c:/arduino/hardware/tools/g++_arm_none_eabi/bin/../lib/gcc/arm-none-eabi/4.4.1/../../../../arm-none-eabi/lib/thumb2\libc.a(lib_a-wsetup.o)
                                                  c:/arduino/hardware/tools/g++_arm_none_eabi/bin/../lib/gcc/arm-none-eabi/4.4.1/../../../../arm-none-eabi/lib/thumb2\libc.a(lib_a-svfprintf.o)
                                                  c:/arduino/hardware/tools/g++_arm_none_eabi/bin/../lib/gcc/arm-none-eabi/4.4.1/../../../../arm-none-eabi/lib/thumb2\libc.a(lib_a-reallocr.o)
                                                  c:/arduino/hardware/tools/g++_arm_none_eabi/bin/../lib/gcc/arm-none-eabi/4.4.1/../../../../arm-none-eabi/lib/thumb2\libc.a(lib_a-mallocr.o)
                                                  c:/arduino/hardware/tools/g++_arm_none_eabi/bin/../lib/gcc/arm-none-eabi/4.4.1/../../../../arm-none-eabi/lib/thumb2\libc.a(lib_a-malloc.o)
_fstat                                            C:/Users/jon_000/Git/ALFRED_CORE/Release/arduino/syscalls_sam3.c.o
                                                  c:/arduino/hardware/tools/g++_arm_none_eabi/bin/../lib/gcc/arm-none-eabi/4.4.1/../../../../arm-none-eabi/lib/thumb2\libc.a(lib_a-fstatr.o)
_fstat_r                                          c:/arduino/hardware/tools/g++_arm_none_eabi/bin/../lib/gcc/arm-none-eabi/4.4.1/../../../../arm-none-eabi/lib/thumb2\libc.a(lib_a-fstatr.o)
                                                  c:/arduino/hardware/tools/g++_arm_none_eabi/bin/../lib/gcc/arm-none-eabi/4.4.1/../../../../arm-none-eabi/lib/thumb2\libc.a(lib_a-makebuf.o)
_fwalk                                            c:/arduino/hardware/tools/g++_arm_none_eabi/bin/../lib/gcc/arm-none-eabi/4.4.1/../../../../arm-none-eabi/lib/thumb2\libc.a(lib_a-fwalk.o)
                                                  c:/arduino/hardware/tools/g++_arm_none_eabi/bin/../lib/gcc/arm-none-eabi/4.4.1/../../../../arm-none-eabi/lib/thumb2\libc.a(lib_a-findfp.o)
_fwalk_reent                                      c:/arduino/hardware/tools/g++_arm_none_eabi/bin/../lib/gcc/arm-none-eabi/4.4.1/../../../../arm-none-eabi/lib/thumb2\libc.a(lib_a-fwalk.o)
                                                  c:/arduino/hardware/tools/g++_arm_none_eabi/bin/../lib/gcc/arm-none-eabi/4.4.1/../../../../arm-none-eabi/lib/thumb2\libc.a(lib_a-fflush.o)
_getpid                                           C:/Users/jon_000/Git/ALFRED_CORE/Release/arduino/syscalls_sam3.c.o
                                                  c:/arduino/hardware/tools/g++_arm_none_eabi/bin/../lib/gcc/arm-none-eabi/4.4.1/../../../../arm-none-eabi/lib/thumb2\libc.a(lib_a-signalr.o)
_getpid_r                                         c:/arduino/hardware/tools/g++_arm_none_eabi/bin/../lib/gcc/arm-none-eabi/4.4.1/../../../../arm-none-eabi/lib/thumb2\libc.a(lib_a-signalr.o)
                                                  c:/arduino/hardware/tools/g++_arm_none_eabi/bin/../lib/gcc/arm-none-eabi/4.4.1/../../../../arm-none-eabi/lib/thumb2\libc.a(lib_a-signal.o)
_global_impure_ptr                                c:/arduino/hardware/tools/g++_arm_none_eabi/bin/../lib/gcc/arm-none-eabi/4.4.1/../../../../arm-none-eabi/lib/thumb2\libc.a(lib_a-impure.o)
                                                  c:/arduino/hardware/tools/g++_arm_none_eabi/bin/../lib/gcc/arm-none-eabi/4.4.1/../../../../arm-none-eabi/lib/thumb2\libc.a(lib_a-findfp.o)
                                                  c:/arduino/hardware/tools/g++_arm_none_eabi/bin/../lib/gcc/arm-none-eabi/4.4.1/../../../../arm-none-eabi/lib/thumb2\libc.a(lib_a-fflush.o)
_hidInterface                                     C:/Users/jon_000/Git/ALFRED_CORE/Release/arduino.ar(HID.cpp.o)
_hidReportDescriptor                              C:/Users/jon_000/Git/ALFRED_CORE/Release/arduino.ar(HID.cpp.o)
_hid_idle                                         C:/Users/jon_000/Git/ALFRED_CORE/Release/arduino.ar(HID.cpp.o)
_hid_protocol                                     C:/Users/jon_000/Git/ALFRED_CORE/Release/arduino.ar(HID.cpp.o)
_impure_ptr                                       c:/arduino/hardware/tools/g++_arm_none_eabi/bin/../lib/gcc/arm-none-eabi/4.4.1/../../../../arm-none-eabi/lib/thumb2\libc.a(lib_a-impure.o)
                                                  c:/arduino/hardware/tools/g++_arm_none_eabi/bin/../lib/gcc/arm-none-eabi/4.4.1/../../../../arm-none-eabi/lib/thumb2\libc.a(lib_a-fclose.o)
                                                  c:/arduino/hardware/tools/g++_arm_none_eabi/bin/../lib/gcc/arm-none-eabi/4.4.1/../../../../arm-none-eabi/lib/thumb2\libc.a(lib_a-signal.o)
                                                  c:/arduino/hardware/tools/g++_arm_none_eabi/bin/../lib/gcc/arm-none-eabi/4.4.1/../../../../arm-none-eabi/lib/thumb2\libc.a(lib_a-reent.o)
                                                  c:/arduino/hardware/tools/g++_arm_none_eabi/bin/../lib/gcc/arm-none-eabi/4.4.1/../../../../arm-none-eabi/lib/thumb2\libc.a(lib_a-locale.o)
                                                  c:/arduino/hardware/tools/g++_arm_none_eabi/bin/../lib/gcc/arm-none-eabi/4.4.1/../../../../arm-none-eabi/lib/thumb2\libc.a(lib_a-findfp.o)
                                                  c:/arduino/hardware/tools/g++_arm_none_eabi/bin/../lib/gcc/arm-none-eabi/4.4.1/../../../../arm-none-eabi/lib/thumb2\libc.a(lib_a-fflush.o)
                                                  c:/arduino/hardware/tools/g++_arm_none_eabi/bin/../lib/gcc/arm-none-eabi/4.4.1/../../../../arm-none-eabi/lib/thumb2\libc.a(lib_a-wsetup.o)
                                                  c:/arduino/hardware/tools/g++_arm_none_eabi/bin/../lib/gcc/arm-none-eabi/4.4.1/../../../../arm-none-eabi/lib/thumb2\libc.a(lib_a-vfiprintf.o)
                                                  c:/arduino/hardware/tools/g++_arm_none_eabi/bin/../lib/gcc/arm-none-eabi/4.4.1/../../../../arm-none-eabi/lib/thumb2\libc.a(lib_a-strtol.o)
                                                  c:/arduino/hardware/tools/g++_arm_none_eabi/bin/../lib/gcc/arm-none-eabi/4.4.1/../../../../arm-none-eabi/lib/thumb2\libc.a(lib_a-strtod.o)
                                                  c:/arduino/hardware/tools/g++_arm_none_eabi/bin/../lib/gcc/arm-none-eabi/4.4.1/../../../../arm-none-eabi/lib/thumb2\libc.a(lib_a-sprintf.o)
                                                  c:/arduino/hardware/tools/g++_arm_none_eabi/bin/../lib/gcc/arm-none-eabi/4.4.1/../../../../arm-none-eabi/lib/thumb2\libc.a(lib_a-realloc.o)
                                                  c:/arduino/hardware/tools/g++_arm_none_eabi/bin/../lib/gcc/arm-none-eabi/4.4.1/../../../../arm-none-eabi/lib/thumb2\libc.a(lib_a-malloc.o)
                                                  c:/arduino/hardware/tools/g++_arm_none_eabi/bin/../lib/gcc/arm-none-eabi/4.4.1/../../../../arm-none-eabi/lib/thumb2\libc.a(lib_a-iprintf.o)
                                                  c:/arduino/hardware/tools/g++_arm_none_eabi/bin/../lib/gcc/arm-none-eabi/4.4.1/../../../../arm-none-eabi/lib/thumb2\libc.a(lib_a-fiprintf.o)
                                                  c:/arduino/hardware/tools/g++_arm_none_eabi/bin/../lib/gcc/arm-none-eabi/4.4.1/../../../../arm-none-eabi/lib/thumb2\libc.a(lib_a-assert.o)
_init                                             c:/arduino/hardware/tools/g++_arm_none_eabi/bin/../lib/gcc/arm-none-eabi/4.4.1/thumb2/crti.o
                                                  c:/arduino/hardware/tools/g++_arm_none_eabi/bin/../lib/gcc/arm-none-eabi/4.4.1/../../../../arm-none-eabi/lib/thumb2\libc.a(lib_a-init.o)
_init_signal                                      c:/arduino/hardware/tools/g++_arm_none_eabi/bin/../lib/gcc/arm-none-eabi/4.4.1/../../../../arm-none-eabi/lib/thumb2\libc.a(lib_a-signal.o)
_init_signal_r                                    c:/arduino/hardware/tools/g++_arm_none_eabi/bin/../lib/gcc/arm-none-eabi/4.4.1/../../../../arm-none-eabi/lib/thumb2\libc.a(lib_a-signal.o)
_iprintf_r                                        c:/arduino/hardware/tools/g++_arm_none_eabi/bin/../lib/gcc/arm-none-eabi/4.4.1/../../../../arm-none-eabi/lib/thumb2\libc.a(lib_a-iprintf.o)
_isatty                                           C:/Users/jon_000/Git/ALFRED_CORE/Release/arduino/syscalls_sam3.c.o
                                                  c:/arduino/hardware/tools/g++_arm_none_eabi/bin/../lib/gcc/arm-none-eabi/4.4.1/../../../../arm-none-eabi/lib/thumb2\libc.a(lib_a-isattyr.o)
_isatty_r                                         c:/arduino/hardware/tools/g++_arm_none_eabi/bin/../lib/gcc/arm-none-eabi/4.4.1/../../../../arm-none-eabi/lib/thumb2\libc.a(lib_a-isattyr.o)
                                                  c:/arduino/hardware/tools/g++_arm_none_eabi/bin/../lib/gcc/arm-none-eabi/4.4.1/../../../../arm-none-eabi/lib/thumb2\libc.a(lib_a-makebuf.o)
_kill                                             C:/Users/jon_000/Git/ALFRED_CORE/Release/arduino/syscalls_sam3.c.o
                                                  c:/arduino/hardware/tools/g++_arm_none_eabi/bin/../lib/gcc/arm-none-eabi/4.4.1/../../../../arm-none-eabi/lib/thumb2\libc.a(lib_a-signalr.o)
_kill_r                                           c:/arduino/hardware/tools/g++_arm_none_eabi/bin/../lib/gcc/arm-none-eabi/4.4.1/../../../../arm-none-eabi/lib/thumb2\libc.a(lib_a-signalr.o)
                                                  c:/arduino/hardware/tools/g++_arm_none_eabi/bin/../lib/gcc/arm-none-eabi/4.4.1/../../../../arm-none-eabi/lib/thumb2\libc.a(lib_a-signal.o)
_localeconv_r                                     c:/arduino/hardware/tools/g++_arm_none_eabi/bin/../lib/gcc/arm-none-eabi/4.4.1/../../../../arm-none-eabi/lib/thumb2\libc.a(lib_a-locale.o)
                                                  c:/arduino/hardware/tools/g++_arm_none_eabi/bin/../lib/gcc/arm-none-eabi/4.4.1/../../../../arm-none-eabi/lib/thumb2\libc.a(lib_a-svfprintf.o)
_lseek                                            C:/Users/jon_000/Git/ALFRED_CORE/Release/arduino/syscalls_sam3.c.o
                                                  c:/arduino/hardware/tools/g++_arm_none_eabi/bin/../lib/gcc/arm-none-eabi/4.4.1/../../../../arm-none-eabi/lib/thumb2\libc.a(lib_a-lseekr.o)
_lseek_r                                          c:/arduino/hardware/tools/g++_arm_none_eabi/bin/../lib/gcc/arm-none-eabi/4.4.1/../../../../arm-none-eabi/lib/thumb2\libc.a(lib_a-lseekr.o)
                                                  c:/arduino/hardware/tools/g++_arm_none_eabi/bin/../lib/gcc/arm-none-eabi/4.4.1/../../../../arm-none-eabi/lib/thumb2\libc.a(lib_a-stdio.o)
_malloc_r                                         c:/arduino/hardware/tools/g++_arm_none_eabi/bin/../lib/gcc/arm-none-eabi/4.4.1/../../../../arm-none-eabi/lib/thumb2\libc.a(lib_a-mallocr.o)
                                                  c:/arduino/hardware/tools/g++_arm_none_eabi/bin/../lib/gcc/arm-none-eabi/4.4.1/../../../../arm-none-eabi/lib/thumb2\libc.a(lib_a-callocr.o)
                                                  c:/arduino/hardware/tools/g++_arm_none_eabi/bin/../lib/gcc/arm-none-eabi/4.4.1/../../../../arm-none-eabi/lib/thumb2\libc.a(lib_a-signal.o)
                                                  c:/arduino/hardware/tools/g++_arm_none_eabi/bin/../lib/gcc/arm-none-eabi/4.4.1/../../../../arm-none-eabi/lib/thumb2\libc.a(lib_a-makebuf.o)
                                                  c:/arduino/hardware/tools/g++_arm_none_eabi/bin/../lib/gcc/arm-none-eabi/4.4.1/../../../../arm-none-eabi/lib/thumb2\libc.a(lib_a-fvwrite.o)
                                                  c:/arduino/hardware/tools/g++_arm_none_eabi/bin/../lib/gcc/arm-none-eabi/4.4.1/../../../../arm-none-eabi/lib/thumb2\libc.a(lib_a-findfp.o)
                                                  c:/arduino/hardware/tools/g++_arm_none_eabi/bin/../lib/gcc/arm-none-eabi/4.4.1/../../../../arm-none-eabi/lib/thumb2\libc.a(lib_a-svfprintf.o)
                                                  c:/arduino/hardware/tools/g++_arm_none_eabi/bin/../lib/gcc/arm-none-eabi/4.4.1/../../../../arm-none-eabi/lib/thumb2\libc.a(lib_a-reallocr.o)
                                                  c:/arduino/hardware/tools/g++_arm_none_eabi/bin/../lib/gcc/arm-none-eabi/4.4.1/../../../../arm-none-eabi/lib/thumb2\libc.a(lib_a-malloc.o)
_malloc_trim_r                                    c:/arduino/hardware/tools/g++_arm_none_eabi/bin/../lib/gcc/arm-none-eabi/4.4.1/../../../../arm-none-eabi/lib/thumb2\libc.a(lib_a-freer.o)
_mprec_log10                                      c:/arduino/hardware/tools/g++_arm_none_eabi/bin/../lib/gcc/arm-none-eabi/4.4.1/../../../../arm-none-eabi/lib/thumb2\libc.a(lib_a-mprec.o)
_raise_r                                          c:/arduino/hardware/tools/g++_arm_none_eabi/bin/../lib/gcc/arm-none-eabi/4.4.1/../../../../arm-none-eabi/lib/thumb2\libc.a(lib_a-signal.o)
_read                                             C:/Users/jon_000/Git/ALFRED_CORE/Release/arduino/syscalls_sam3.c.o
                                                  c:/arduino/hardware/tools/g++_arm_none_eabi/bin/../lib/gcc/arm-none-eabi/4.4.1/../../../../arm-none-eabi/lib/thumb2\libc.a(lib_a-readr.o)
_read_r                                           c:/arduino/hardware/tools/g++_arm_none_eabi/bin/../lib/gcc/arm-none-eabi/4.4.1/../../../../arm-none-eabi/lib/thumb2\libc.a(lib_a-readr.o)
                                                  c:/arduino/hardware/tools/g++_arm_none_eabi/bin/../lib/gcc/arm-none-eabi/4.4.1/../../../../arm-none-eabi/lib/thumb2\libc.a(lib_a-stdio.o)
_realloc_r                                        c:/arduino/hardware/tools/g++_arm_none_eabi/bin/../lib/gcc/arm-none-eabi/4.4.1/../../../../arm-none-eabi/lib/thumb2\libc.a(lib_a-reallocr.o)
                                                  c:/arduino/hardware/tools/g++_arm_none_eabi/bin/../lib/gcc/arm-none-eabi/4.4.1/../../../../arm-none-eabi/lib/thumb2\libc.a(lib_a-fvwrite.o)
                                                  c:/arduino/hardware/tools/g++_arm_none_eabi/bin/../lib/gcc/arm-none-eabi/4.4.1/../../../../arm-none-eabi/lib/thumb2\libc.a(lib_a-svfprintf.o)
                                                  c:/arduino/hardware/tools/g++_arm_none_eabi/bin/../lib/gcc/arm-none-eabi/4.4.1/../../../../arm-none-eabi/lib/thumb2\libc.a(lib_a-realloc.o)
_reclaim_reent                                    c:/arduino/hardware/tools/g++_arm_none_eabi/bin/../lib/gcc/arm-none-eabi/4.4.1/../../../../arm-none-eabi/lib/thumb2\libc.a(lib_a-reent.o)
_sbrk                                             C:/Users/jon_000/Git/ALFRED_CORE/Release/arduino/syscalls_sam3.c.o
                                                  c:/arduino/hardware/tools/g++_arm_none_eabi/bin/../lib/gcc/arm-none-eabi/4.4.1/../../../../arm-none-eabi/lib/thumb2\libc.a(lib_a-sbrkr.o)
_sbrk_r                                           c:/arduino/hardware/tools/g++_arm_none_eabi/bin/../lib/gcc/arm-none-eabi/4.4.1/../../../../arm-none-eabi/lib/thumb2\libc.a(lib_a-sbrkr.o)
                                                  c:/arduino/hardware/tools/g++_arm_none_eabi/bin/../lib/gcc/arm-none-eabi/4.4.1/../../../../arm-none-eabi/lib/thumb2\libc.a(lib_a-freer.o)
                                                  c:/arduino/hardware/tools/g++_arm_none_eabi/bin/../lib/gcc/arm-none-eabi/4.4.1/../../../../arm-none-eabi/lib/thumb2\libc.a(lib_a-mallocr.o)
_serialPeek                                       C:/Users/jon_000/Git/ALFRED_CORE/Release/arduino.ar(CDC.cpp.o)
_setlocale_r                                      c:/arduino/hardware/tools/g++_arm_none_eabi/bin/../lib/gcc/arm-none-eabi/4.4.1/../../../../arm-none-eabi/lib/thumb2\libc.a(lib_a-locale.o)
_sfixed                                           C:/Arduino/hardware/arduino/sam/variants/arduino_due_x/libsam_sam3x8e_gcc_rel.a(startup_sam3xa.o)
_signal_r                                         c:/arduino/hardware/tools/g++_arm_none_eabi/bin/../lib/gcc/arm-none-eabi/4.4.1/../../../../arm-none-eabi/lib/thumb2\libc.a(lib_a-signal.o)
_sprintf_r                                        c:/arduino/hardware/tools/g++_arm_none_eabi/bin/../lib/gcc/arm-none-eabi/4.4.1/../../../../arm-none-eabi/lib/thumb2\libc.a(lib_a-sprintf.o)
_srelocate                                        C:/Arduino/hardware/arduino/sam/variants/arduino_due_x/libsam_sam3x8e_gcc_rel.a(startup_sam3xa.o)
_strtod_r                                         c:/arduino/hardware/tools/g++_arm_none_eabi/bin/../lib/gcc/arm-none-eabi/4.4.1/../../../../arm-none-eabi/lib/thumb2\libc.a(lib_a-strtod.o)
_strtol_r                                         c:/arduino/hardware/tools/g++_arm_none_eabi/bin/../lib/gcc/arm-none-eabi/4.4.1/../../../../arm-none-eabi/lib/thumb2\libc.a(lib_a-strtol.o)
                                                  c:/arduino/hardware/tools/g++_arm_none_eabi/bin/../lib/gcc/arm-none-eabi/4.4.1/../../../../arm-none-eabi/lib/thumb2\libc.a(lib_a-atol.o)
_svfprintf_r                                      c:/arduino/hardware/tools/g++_arm_none_eabi/bin/../lib/gcc/arm-none-eabi/4.4.1/../../../../arm-none-eabi/lib/thumb2\libc.a(lib_a-svfprintf.o)
                                                  c:/arduino/hardware/tools/g++_arm_none_eabi/bin/../lib/gcc/arm-none-eabi/4.4.1/../../../../arm-none-eabi/lib/thumb2\libc.a(lib_a-sprintf.o)
_szero                                            C:/Arduino/hardware/arduino/sam/variants/arduino_due_x/libsam_sam3x8e_gcc_rel.a(startup_sam3xa.o)
_usbConfiguration                                 C:/Users/jon_000/Git/ALFRED_CORE/Release/arduino.ar(USBCore.cpp.o)
_usbInitialized                                   C:/Users/jon_000/Git/ALFRED_CORE/Release/arduino.ar(USBCore.cpp.o)
_usbSetInterface                                  C:/Users/jon_000/Git/ALFRED_CORE/Release/arduino.ar(USBCore.cpp.o)
_vfiprintf_r                                      c:/arduino/hardware/tools/g++_arm_none_eabi/bin/../lib/gcc/arm-none-eabi/4.4.1/../../../../arm-none-eabi/lib/thumb2\libc.a(lib_a-vfiprintf.o)
                                                  c:/arduino/hardware/tools/g++_arm_none_eabi/bin/../lib/gcc/arm-none-eabi/4.4.1/../../../../arm-none-eabi/lib/thumb2\libc.a(lib_a-iprintf.o)
                                                  c:/arduino/hardware/tools/g++_arm_none_eabi/bin/../lib/gcc/arm-none-eabi/4.4.1/../../../../arm-none-eabi/lib/thumb2\libc.a(lib_a-fiprintf.o)
_wrapup_reent                                     c:/arduino/hardware/tools/g++_arm_none_eabi/bin/../lib/gcc/arm-none-eabi/4.4.1/../../../../arm-none-eabi/lib/thumb2\libc.a(lib_a-reent.o)
_write                                            C:/Users/jon_000/Git/ALFRED_CORE/Release/arduino/syscalls_sam3.c.o
                                                  c:/arduino/hardware/tools/g++_arm_none_eabi/bin/../lib/gcc/arm-none-eabi/4.4.1/../../../../arm-none-eabi/lib/thumb2\libc.a(lib_a-writer.o)
_write_r                                          c:/arduino/hardware/tools/g++_arm_none_eabi/bin/../lib/gcc/arm-none-eabi/4.4.1/../../../../arm-none-eabi/lib/thumb2\libc.a(lib_a-writer.o)
                                                  c:/arduino/hardware/tools/g++_arm_none_eabi/bin/../lib/gcc/arm-none-eabi/4.4.1/../../../../arm-none-eabi/lib/thumb2\libc.a(lib_a-stdio.o)
abort                                             c:/arduino/hardware/tools/g++_arm_none_eabi/bin/../lib/gcc/arm-none-eabi/4.4.1/../../../../arm-none-eabi/lib/thumb2\libc.a(lib_a-abort.o)
                                                  c:/arduino/hardware/tools/g++_arm_none_eabi/bin/../lib/gcc/arm-none-eabi/4.4.1/../../../../arm-none-eabi/lib/thumb2\libc.a(lib_a-assert.o)
adc_configure_power_save                          C:/Arduino/hardware/arduino/sam/variants/arduino_due_x/libsam_sam3x8e_gcc_rel.a(adc.o)
adc_configure_sequence                            C:/Arduino/hardware/arduino/sam/variants/arduino_due_x/libsam_sam3x8e_gcc_rel.a(adc.o)
adc_configure_timing                              C:/Arduino/hardware/arduino/sam/variants/arduino_due_x/libsam_sam3x8e_gcc_rel.a(adc.o)
                                                  C:/Users/jon_000/Git/ALFRED_CORE/Release/arduino.ar(variant.cpp.o)
adc_configure_trigger                             C:/Arduino/hardware/arduino/sam/variants/arduino_due_x/libsam_sam3x8e_gcc_rel.a(adc.o)
                                                  C:/Users/jon_000/Git/ALFRED_CORE/Release/arduino.ar(variant.cpp.o)
adc_disable_all_channel                           C:/Arduino/hardware/arduino/sam/variants/arduino_due_x/libsam_sam3x8e_gcc_rel.a(adc.o)
                                                  C:/Users/jon_000/Git/ALFRED_CORE/Release/arduino.ar(variant.cpp.o)
adc_disable_anch                                  C:/Arduino/hardware/arduino/sam/variants/arduino_due_x/libsam_sam3x8e_gcc_rel.a(adc.o)
adc_disable_channel                               C:/Arduino/hardware/arduino/sam/variants/arduino_due_x/libsam_sam3x8e_gcc_rel.a(adc.o)
adc_disable_channel_differential_input            C:/Arduino/hardware/arduino/sam/variants/arduino_due_x/libsam_sam3x8e_gcc_rel.a(adc.o)
adc_disable_channel_input_offset                  C:/Arduino/hardware/arduino/sam/variants/arduino_due_x/libsam_sam3x8e_gcc_rel.a(adc.o)
adc_disable_interrupt                             C:/Arduino/hardware/arduino/sam/variants/arduino_due_x/libsam_sam3x8e_gcc_rel.a(adc.o)
                                                  C:/Users/jon_000/Git/ALFRED_CORE/Release/arduino.ar(variant.cpp.o)
adc_disable_tag                                   C:/Arduino/hardware/arduino/sam/variants/arduino_due_x/libsam_sam3x8e_gcc_rel.a(adc.o)
adc_disable_ts                                    C:/Arduino/hardware/arduino/sam/variants/arduino_due_x/libsam_sam3x8e_gcc_rel.a(adc.o)
adc_enable_all_channel                            C:/Arduino/hardware/arduino/sam/variants/arduino_due_x/libsam_sam3x8e_gcc_rel.a(adc.o)
adc_enable_anch                                   C:/Arduino/hardware/arduino/sam/variants/arduino_due_x/libsam_sam3x8e_gcc_rel.a(adc.o)
adc_enable_channel                                C:/Arduino/hardware/arduino/sam/variants/arduino_due_x/libsam_sam3x8e_gcc_rel.a(adc.o)
                                                  C:/Users/jon_000/Git/ALFRED_CORE/Release/arduino.ar(wiring_analog.c.o)
adc_enable_channel_differential_input             C:/Arduino/hardware/arduino/sam/variants/arduino_due_x/libsam_sam3x8e_gcc_rel.a(adc.o)
adc_enable_channel_input_offset                   C:/Arduino/hardware/arduino/sam/variants/arduino_due_x/libsam_sam3x8e_gcc_rel.a(adc.o)
adc_enable_interrupt                              C:/Arduino/hardware/arduino/sam/variants/arduino_due_x/libsam_sam3x8e_gcc_rel.a(adc.o)
adc_enable_tag                                    C:/Arduino/hardware/arduino/sam/variants/arduino_due_x/libsam_sam3x8e_gcc_rel.a(adc.o)
adc_enable_ts                                     C:/Arduino/hardware/arduino/sam/variants/arduino_due_x/libsam_sam3x8e_gcc_rel.a(adc.o)
adc_get_actual_adc_clock                          C:/Arduino/hardware/arduino/sam/variants/arduino_due_x/libsam_sam3x8e_gcc_rel.a(adc.o)
adc_get_channel_status                            C:/Arduino/hardware/arduino/sam/variants/arduino_due_x/libsam_sam3x8e_gcc_rel.a(adc.o)
adc_get_channel_value                             C:/Arduino/hardware/arduino/sam/variants/arduino_due_x/libsam_sam3x8e_gcc_rel.a(adc.o)
adc_get_comparison_mode                           C:/Arduino/hardware/arduino/sam/variants/arduino_due_x/libsam_sam3x8e_gcc_rel.a(adc.o)
adc_get_interrupt_mask                            C:/Arduino/hardware/arduino/sam/variants/arduino_due_x/libsam_sam3x8e_gcc_rel.a(adc.o)
adc_get_latest_value                              C:/Arduino/hardware/arduino/sam/variants/arduino_due_x/libsam_sam3x8e_gcc_rel.a(adc.o)
                                                  C:/Users/jon_000/Git/ALFRED_CORE/Release/arduino.ar(wiring_analog.c.o)
adc_get_overrun_status                            C:/Arduino/hardware/arduino/sam/variants/arduino_due_x/libsam_sam3x8e_gcc_rel.a(adc.o)
adc_get_pdc_base                                  C:/Arduino/hardware/arduino/sam/variants/arduino_due_x/libsam_sam3x8e_gcc_rel.a(adc.o)
adc_get_status                                    C:/Arduino/hardware/arduino/sam/variants/arduino_due_x/libsam_sam3x8e_gcc_rel.a(adc.o)
                                                  C:/Users/jon_000/Git/ALFRED_CORE/Release/arduino.ar(wiring_analog.c.o)
adc_get_tag                                       C:/Arduino/hardware/arduino/sam/variants/arduino_due_x/libsam_sam3x8e_gcc_rel.a(adc.o)
adc_get_writeprotect_status                       C:/Arduino/hardware/arduino/sam/variants/arduino_due_x/libsam_sam3x8e_gcc_rel.a(adc.o)
adc_init                                          C:/Arduino/hardware/arduino/sam/variants/arduino_due_x/libsam_sam3x8e_gcc_rel.a(adc.o)
                                                  C:/Users/jon_000/Git/ALFRED_CORE/Release/arduino.ar(variant.cpp.o)
adc_set_bias_current                              C:/Arduino/hardware/arduino/sam/variants/arduino_due_x/libsam_sam3x8e_gcc_rel.a(adc.o)
adc_set_channel_input_gain                        C:/Arduino/hardware/arduino/sam/variants/arduino_due_x/libsam_sam3x8e_gcc_rel.a(adc.o)
adc_set_comparison_channel                        C:/Arduino/hardware/arduino/sam/variants/arduino_due_x/libsam_sam3x8e_gcc_rel.a(adc.o)
adc_set_comparison_mode                           C:/Arduino/hardware/arduino/sam/variants/arduino_due_x/libsam_sam3x8e_gcc_rel.a(adc.o)
adc_set_comparison_window                         C:/Arduino/hardware/arduino/sam/variants/arduino_due_x/libsam_sam3x8e_gcc_rel.a(adc.o)
adc_set_resolution                                C:/Arduino/hardware/arduino/sam/variants/arduino_due_x/libsam_sam3x8e_gcc_rel.a(adc.o)
adc_set_writeprotect                              C:/Arduino/hardware/arduino/sam/variants/arduino_due_x/libsam_sam3x8e_gcc_rel.a(adc.o)
adc_start                                         C:/Arduino/hardware/arduino/sam/variants/arduino_due_x/libsam_sam3x8e_gcc_rel.a(adc.o)
                                                  C:/Users/jon_000/Git/ALFRED_CORE/Release/arduino.ar(wiring_analog.c.o)
adc_start_sequencer                               C:/Arduino/hardware/arduino/sam/variants/arduino_due_x/libsam_sam3x8e_gcc_rel.a(adc.o)
adc_stop                                          C:/Arduino/hardware/arduino/sam/variants/arduino_due_x/libsam_sam3x8e_gcc_rel.a(adc.o)
adc_stop_sequencer                                C:/Arduino/hardware/arduino/sam/variants/arduino_due_x/libsam_sam3x8e_gcc_rel.a(adc.o)
analogOutputInit                                  C:/Users/jon_000/Git/ALFRED_CORE/Release/arduino.ar(wiring_analog.c.o)
                                                  C:/Users/jon_000/Git/ALFRED_CORE/Release/arduino.ar(variant.cpp.o)
analogRead                                        C:/Users/jon_000/Git/ALFRED_CORE/Release/arduino.ar(wiring_analog.c.o)
analogReadResolution                              C:/Users/jon_000/Git/ALFRED_CORE/Release/arduino.ar(wiring_analog.c.o)
analogReference                                   C:/Users/jon_000/Git/ALFRED_CORE/Release/arduino.ar(wiring_analog.c.o)
analogWrite                                       C:/Users/jon_000/Git/ALFRED_CORE/Release/arduino.ar(wiring_analog.c.o)
analogWriteResolution                             C:/Users/jon_000/Git/ALFRED_CORE/Release/arduino.ar(wiring_analog.c.o)
analog_reference                                  C:/Users/jon_000/Git/ALFRED_CORE/Release/arduino.ar(wiring_analog.c.o)
atof                                              c:/arduino/hardware/tools/g++_arm_none_eabi/bin/../lib/gcc/arm-none-eabi/4.4.1/../../../../arm-none-eabi/lib/thumb2\libc.a(lib_a-atof.o)
                                                  C:/Users/jon_000/Git/ALFRED_CORE/Release/arduino.ar(WString.cpp.o)
atol                                              c:/arduino/hardware/tools/g++_arm_none_eabi/bin/../lib/gcc/arm-none-eabi/4.4.1/../../../../arm-none-eabi/lib/thumb2\libc.a(lib_a-atol.o)
                                                  C:/Users/jon_000/Git/ALFRED_CORE/Release/arduino.ar(WString.cpp.o)
attachInterrupt                                   C:/Users/jon_000/Git/ALFRED_CORE/Release/arduino.ar(WInterrupts.c.o)
banzai                                            C:/Users/jon_000/Git/ALFRED_CORE/Release/arduino.ar(Reset.cpp.o)
cancelReset                                       C:/Users/jon_000/Git/ALFRED_CORE/Release/arduino.ar(Reset.cpp.o)
                                                  C:/Users/jon_000/Git/ALFRED_CORE/Release/arduino.ar(CDC.cpp.o)
cdc_rx_buffer                                     C:/Users/jon_000/Git/ALFRED_CORE/Release/arduino.ar(CDC.cpp.o)
cleanup_glue                                      c:/arduino/hardware/tools/g++_arm_none_eabi/bin/../lib/gcc/arm-none-eabi/4.4.1/../../../../arm-none-eabi/lib/thumb2\libc.a(lib_a-reent.o)
com                                               ./ALFRED_CORE.cpp.o
connected                                         ./ALFRED_CORE.cpp.o
dacc_disable_channel                              C:/Arduino/hardware/arduino/sam/variants/arduino_due_x/libsam_sam3x8e_gcc_rel.a(dacc.o)
dacc_disable_interrupt                            C:/Arduino/hardware/arduino/sam/variants/arduino_due_x/libsam_sam3x8e_gcc_rel.a(dacc.o)
dacc_disable_trigger                              C:/Arduino/hardware/arduino/sam/variants/arduino_due_x/libsam_sam3x8e_gcc_rel.a(dacc.o)
dacc_enable_channel                               C:/Arduino/hardware/arduino/sam/variants/arduino_due_x/libsam_sam3x8e_gcc_rel.a(dacc.o)
                                                  C:/Users/jon_000/Git/ALFRED_CORE/Release/arduino.ar(wiring_analog.c.o)
dacc_enable_flexible_selection                    C:/Arduino/hardware/arduino/sam/variants/arduino_due_x/libsam_sam3x8e_gcc_rel.a(dacc.o)
dacc_enable_interrupt                             C:/Arduino/hardware/arduino/sam/variants/arduino_due_x/libsam_sam3x8e_gcc_rel.a(dacc.o)
dacc_get_analog_control                           C:/Arduino/hardware/arduino/sam/variants/arduino_due_x/libsam_sam3x8e_gcc_rel.a(dacc.o)
dacc_get_channel_status                           C:/Arduino/hardware/arduino/sam/variants/arduino_due_x/libsam_sam3x8e_gcc_rel.a(dacc.o)
                                                  C:/Users/jon_000/Git/ALFRED_CORE/Release/arduino.ar(wiring_analog.c.o)
dacc_get_interrupt_mask                           C:/Arduino/hardware/arduino/sam/variants/arduino_due_x/libsam_sam3x8e_gcc_rel.a(dacc.o)
dacc_get_interrupt_status                         C:/Arduino/hardware/arduino/sam/variants/arduino_due_x/libsam_sam3x8e_gcc_rel.a(dacc.o)
                                                  C:/Users/jon_000/Git/ALFRED_CORE/Release/arduino.ar(wiring_analog.c.o)
dacc_get_pdc_base                                 C:/Arduino/hardware/arduino/sam/variants/arduino_due_x/libsam_sam3x8e_gcc_rel.a(dacc.o)
dacc_get_writeprotect_status                      C:/Arduino/hardware/arduino/sam/variants/arduino_due_x/libsam_sam3x8e_gcc_rel.a(dacc.o)
dacc_reset                                        C:/Arduino/hardware/arduino/sam/variants/arduino_due_x/libsam_sam3x8e_gcc_rel.a(dacc.o)
                                                  C:/Users/jon_000/Git/ALFRED_CORE/Release/arduino.ar(wiring_analog.c.o)
dacc_set_analog_control                           C:/Arduino/hardware/arduino/sam/variants/arduino_due_x/libsam_sam3x8e_gcc_rel.a(dacc.o)
                                                  C:/Users/jon_000/Git/ALFRED_CORE/Release/arduino.ar(wiring_analog.c.o)
dacc_set_channel_selection                        C:/Arduino/hardware/arduino/sam/variants/arduino_due_x/libsam_sam3x8e_gcc_rel.a(dacc.o)
                                                  C:/Users/jon_000/Git/ALFRED_CORE/Release/arduino.ar(wiring_analog.c.o)
dacc_set_power_save                               C:/Arduino/hardware/arduino/sam/variants/arduino_due_x/libsam_sam3x8e_gcc_rel.a(dacc.o)
                                                  C:/Users/jon_000/Git/ALFRED_CORE/Release/arduino.ar(wiring_analog.c.o)
dacc_set_timing                                   C:/Arduino/hardware/arduino/sam/variants/arduino_due_x/libsam_sam3x8e_gcc_rel.a(dacc.o)
                                                  C:/Users/jon_000/Git/ALFRED_CORE/Release/arduino.ar(wiring_analog.c.o)
dacc_set_transfer_mode                            C:/Arduino/hardware/arduino/sam/variants/arduino_due_x/libsam_sam3x8e_gcc_rel.a(dacc.o)
                                                  C:/Users/jon_000/Git/ALFRED_CORE/Release/arduino.ar(wiring_analog.c.o)
dacc_set_trigger                                  C:/Arduino/hardware/arduino/sam/variants/arduino_due_x/libsam_sam3x8e_gcc_rel.a(dacc.o)
dacc_set_writeprotect                             C:/Arduino/hardware/arduino/sam/variants/arduino_due_x/libsam_sam3x8e_gcc_rel.a(dacc.o)
dacc_write_conversion_data                        C:/Arduino/hardware/arduino/sam/variants/arduino_due_x/libsam_sam3x8e_gcc_rel.a(dacc.o)
                                                  C:/Users/jon_000/Git/ALFRED_CORE/Release/arduino.ar(wiring_analog.c.o)
delay                                             C:/Users/jon_000/Git/ALFRED_CORE/Release/arduino.ar(wiring.c.o)
                                                  C:/Users/jon_000/Git/ALFRED_CORE/Release/arduino.ar(CDC.cpp.o)
                                                  C:/Users/jon_000/Git/ALFRED_CORE/Release/arduino.ar(USBCore.cpp.o)
                                                  C:/Users/jon_000/Git/ALFRED_CORE/Release/arduino.ar(main.cpp.o)
                                                  ./Libraries/I2C_PWM_Servo_Driver/Adafruit_PWMServoDriver.cpp.o
detachInterrupt                                   C:/Users/jon_000/Git/ALFRED_CORE/Release/arduino.ar(WInterrupts.c.o)
digitalRead                                       C:/Users/jon_000/Git/ALFRED_CORE/Release/arduino.ar(wiring_digital.c.o)
digitalWrite                                      C:/Users/jon_000/Git/ALFRED_CORE/Release/arduino.ar(wiring_digital.c.o)
                                                  C:/Users/jon_000/Git/ALFRED_CORE/Release/arduino.ar(wiring_analog.c.o)
                                                  C:/Users/jon_000/Git/ALFRED_CORE/Release/arduino.ar(variant.cpp.o)
                                                  ./ALFRED_CORE.cpp.o
dtostrf                                           C:/Users/jon_000/Git/ALFRED_CORE/Release/arduino.ar(dtostrf.c.o)
                                                  C:/Users/jon_000/Git/ALFRED_CORE/Release/arduino.ar(WString.cpp.o)
errno                                             c:/arduino/hardware/tools/g++_arm_none_eabi/bin/../lib/gcc/arm-none-eabi/4.4.1/../../../../arm-none-eabi/lib/thumb2\libc.a(lib_a-readr.o)
                                                  c:/arduino/hardware/tools/g++_arm_none_eabi/bin/../lib/gcc/arm-none-eabi/4.4.1/../../../../arm-none-eabi/lib/thumb2\libc.a(lib_a-lseekr.o)
                                                  c:/arduino/hardware/tools/g++_arm_none_eabi/bin/../lib/gcc/arm-none-eabi/4.4.1/../../../../arm-none-eabi/lib/thumb2\libc.a(lib_a-isattyr.o)
                                                  c:/arduino/hardware/tools/g++_arm_none_eabi/bin/../lib/gcc/arm-none-eabi/4.4.1/../../../../arm-none-eabi/lib/thumb2\libc.a(lib_a-fstatr.o)
                                                  c:/arduino/hardware/tools/g++_arm_none_eabi/bin/../lib/gcc/arm-none-eabi/4.4.1/../../../../arm-none-eabi/lib/thumb2\libc.a(lib_a-closer.o)
                                                  c:/arduino/hardware/tools/g++_arm_none_eabi/bin/../lib/gcc/arm-none-eabi/4.4.1/../../../../arm-none-eabi/lib/thumb2\libc.a(lib_a-writer.o)
                                                  c:/arduino/hardware/tools/g++_arm_none_eabi/bin/../lib/gcc/arm-none-eabi/4.4.1/../../../../arm-none-eabi/lib/thumb2\libc.a(lib_a-signalr.o)
                                                  c:/arduino/hardware/tools/g++_arm_none_eabi/bin/../lib/gcc/arm-none-eabi/4.4.1/../../../../arm-none-eabi/lib/thumb2\libc.a(lib_a-reent.o)
                                                  c:/arduino/hardware/tools/g++_arm_none_eabi/bin/../lib/gcc/arm-none-eabi/4.4.1/../../../../arm-none-eabi/lib/thumb2\libc.a(lib_a-sbrkr.o)
error                                             ./ALFRED_CORE.cpp.o
exception_table                                   C:/Arduino/hardware/arduino/sam/variants/arduino_due_x/libsam_sam3x8e_gcc_rel.a(startup_sam3xa.o)
fclose                                            c:/arduino/hardware/tools/g++_arm_none_eabi/bin/../lib/gcc/arm-none-eabi/4.4.1/../../../../arm-none-eabi/lib/thumb2\libc.a(lib_a-fclose.o)
                                                  c:/arduino/hardware/tools/g++_arm_none_eabi/bin/../lib/gcc/arm-none-eabi/4.4.1/../../../../arm-none-eabi/lib/thumb2\libc.a(lib_a-findfp.o)
fflush                                            c:/arduino/hardware/tools/g++_arm_none_eabi/bin/../lib/gcc/arm-none-eabi/4.4.1/../../../../arm-none-eabi/lib/thumb2\libc.a(lib_a-fflush.o)
fiprintf                                          c:/arduino/hardware/tools/g++_arm_none_eabi/bin/../lib/gcc/arm-none-eabi/4.4.1/../../../../arm-none-eabi/lib/thumb2\libc.a(lib_a-fiprintf.o)
                                                  c:/arduino/hardware/tools/g++_arm_none_eabi/bin/../lib/gcc/arm-none-eabi/4.4.1/../../../../arm-none-eabi/lib/thumb2\libc.a(lib_a-assert.o)
floor                                             c:/arduino/hardware/tools/g++_arm_none_eabi/bin/../lib/gcc/arm-none-eabi/4.4.1/../../../../arm-none-eabi/lib/thumb2\libm.a(lib_a-s_floor.o)
                                                  ./Libraries/I2C_PWM_Servo_Driver/Adafruit_PWMServoDriver.cpp.o
free                                              c:/arduino/hardware/tools/g++_arm_none_eabi/bin/../lib/gcc/arm-none-eabi/4.4.1/../../../../arm-none-eabi/lib/thumb2\libc.a(lib_a-malloc.o)
                                                  C:/Users/jon_000/Git/ALFRED_CORE/Release/arduino.ar(WString.cpp.o)
g_APinDescription                                 C:/Users/jon_000/Git/ALFRED_CORE/Release/arduino.ar(variant.cpp.o)
                                                  C:/Users/jon_000/Git/ALFRED_CORE/Release/arduino.ar(WInterrupts.c.o)
                                                  C:/Users/jon_000/Git/ALFRED_CORE/Release/arduino.ar(wiring_digital.c.o)
                                                  C:/Users/jon_000/Git/ALFRED_CORE/Release/arduino.ar(wiring_analog.c.o)
                                                  ./Libraries/Wire/Wire.cpp.o
g_interrupt_enabled                               C:/Arduino/hardware/arduino/sam/variants/arduino_due_x/libsam_sam3x8e_gcc_rel.a(interrupt_sam_nvic.o)
                                                  C:/Arduino/hardware/arduino/sam/variants/arduino_due_x/libsam_sam3x8e_gcc_rel.a(uotghs_device.o)
                                                  C:/Users/jon_000/Git/ALFRED_CORE/Release/arduino.ar(USBCore.cpp.o)
gpf_isr                                           C:/Arduino/hardware/arduino/sam/variants/arduino_due_x/libsam_sam3x8e_gcc_rel.a(uotghs.o)
                                                  C:/Arduino/hardware/arduino/sam/variants/arduino_due_x/libsam_sam3x8e_gcc_rel.a(uotghs_device.o)
init                                              C:/Users/jon_000/Git/ALFRED_CORE/Release/arduino.ar(variant.cpp.o)
                                                  C:/Users/jon_000/Git/ALFRED_CORE/Release/arduino.ar(main.cpp.o)
initiateReset                                     C:/Users/jon_000/Git/ALFRED_CORE/Release/arduino.ar(Reset.cpp.o)
                                                  C:/Users/jon_000/Git/ALFRED_CORE/Release/arduino.ar(CDC.cpp.o)
iprintf                                           c:/arduino/hardware/tools/g++_arm_none_eabi/bin/../lib/gcc/arm-none-eabi/4.4.1/../../../../arm-none-eabi/lib/thumb2\libc.a(lib_a-iprintf.o)
                                                  C:/Users/jon_000/Git/ALFRED_CORE/Release/arduino/syscalls_sam3.c.o
isspace                                           c:/arduino/hardware/tools/g++_arm_none_eabi/bin/../lib/gcc/arm-none-eabi/4.4.1/../../../../arm-none-eabi/lib/thumb2\libc.a(lib_a-isspace.o)
                                                  C:/Users/jon_000/Git/ALFRED_CORE/Release/arduino.ar(WString.cpp.o)
itoa                                              C:/Users/jon_000/Git/ALFRED_CORE/Release/arduino.ar(itoa.c.o)
                                                  C:/Users/jon_000/Git/ALFRED_CORE/Release/arduino.ar(WString.cpp.o)
link                                              C:/Users/jon_000/Git/ALFRED_CORE/Release/arduino/syscalls_sam3.c.o
localeconv                                        c:/arduino/hardware/tools/g++_arm_none_eabi/bin/../lib/gcc/arm-none-eabi/4.4.1/../../../../arm-none-eabi/lib/thumb2\libc.a(lib_a-locale.o)
loop                                              ./ALFRED_CORE.cpp.o
                                                  C:/Users/jon_000/Git/ALFRED_CORE/Release/arduino.ar(main.cpp.o)
ltoa                                              C:/Users/jon_000/Git/ALFRED_CORE/Release/arduino.ar(itoa.c.o)
                                                  C:/Users/jon_000/Git/ALFRED_CORE/Release/arduino.ar(WString.cpp.o)
main                                              C:/Users/jon_000/Git/ALFRED_CORE/Release/arduino.ar(main.cpp.o)
                                                  C:/Arduino/hardware/arduino/sam/variants/arduino_due_x/libsam_sam3x8e_gcc_rel.a(startup_sam3xa.o)
malloc                                            c:/arduino/hardware/tools/g++_arm_none_eabi/bin/../lib/gcc/arm-none-eabi/4.4.1/../../../../arm-none-eabi/lib/thumb2\libc.a(lib_a-malloc.o)
                                                  c:/arduino/hardware/tools/g++_arm_none_eabi/bin/../lib/gcc/arm-none-eabi/4.4.1/../../../../arm-none-eabi/lib/thumb2\libc.a(lib_a-mprec.o)
                                                  c:/arduino/hardware/tools/g++_arm_none_eabi/bin/../lib/gcc/arm-none-eabi/4.4.1/../../../../arm-none-eabi/lib/thumb2\libc.a(lib_a-dtoa.o)
memchr                                            c:/arduino/hardware/tools/g++_arm_none_eabi/bin/../lib/gcc/arm-none-eabi/4.4.1/../../../../arm-none-eabi/lib/thumb2\libc.a(lib_a-memchr.o)
                                                  c:/arduino/hardware/tools/g++_arm_none_eabi/bin/../lib/gcc/arm-none-eabi/4.4.1/../../../../arm-none-eabi/lib/thumb2\libc.a(lib_a-fvwrite.o)
                                                  c:/arduino/hardware/tools/g++_arm_none_eabi/bin/../lib/gcc/arm-none-eabi/4.4.1/../../../../arm-none-eabi/lib/thumb2\libc.a(lib_a-vfiprintf.o)
                                                  c:/arduino/hardware/tools/g++_arm_none_eabi/bin/../lib/gcc/arm-none-eabi/4.4.1/../../../../arm-none-eabi/lib/thumb2\libc.a(lib_a-svfprintf.o)
                                                  c:/arduino/hardware/tools/g++_arm_none_eabi/bin/../lib/gcc/arm-none-eabi/4.4.1/../../../../arm-none-eabi/lib/thumb2\libc.a(lib_a-strstr.o)
memcmp                                            c:/arduino/hardware/tools/g++_arm_none_eabi/bin/../lib/gcc/arm-none-eabi/4.4.1/../../../../arm-none-eabi/lib/thumb2\libc.a(lib_a-memcmp.o)
                                                  c:/arduino/hardware/tools/g++_arm_none_eabi/bin/../lib/gcc/arm-none-eabi/4.4.1/../../../../arm-none-eabi/lib/thumb2\libc.a(lib_a-strstr.o)
memcpy                                            c:/arduino/hardware/tools/g++_arm_none_eabi/bin/../lib/gcc/arm-none-eabi/4.4.1/../../../../arm-none-eabi/lib/thumb2\libc.a(lib_a-memcpy.o)
                                                  c:/arduino/hardware/tools/g++_arm_none_eabi/bin/../lib/gcc/arm-none-eabi/4.4.1/../../../../arm-none-eabi/lib/thumb2\libc.a(lib_a-mprec.o)
                                                  c:/arduino/hardware/tools/g++_arm_none_eabi/bin/../lib/gcc/arm-none-eabi/4.4.1/../../../../arm-none-eabi/lib/thumb2\libc.a(lib_a-gdtoa-gethex.o)
                                                  c:/arduino/hardware/tools/g++_arm_none_eabi/bin/../lib/gcc/arm-none-eabi/4.4.1/../../../../arm-none-eabi/lib/thumb2\libc.a(lib_a-fvwrite.o)
                                                  c:/arduino/hardware/tools/g++_arm_none_eabi/bin/../lib/gcc/arm-none-eabi/4.4.1/../../../../arm-none-eabi/lib/thumb2\libc.a(lib_a-dtoa.o)
                                                  c:/arduino/hardware/tools/g++_arm_none_eabi/bin/../lib/gcc/arm-none-eabi/4.4.1/../../../../arm-none-eabi/lib/thumb2\libc.a(lib_a-svfprintf.o)
                                                  c:/arduino/hardware/tools/g++_arm_none_eabi/bin/../lib/gcc/arm-none-eabi/4.4.1/../../../../arm-none-eabi/lib/thumb2\libc.a(lib_a-strtod.o)
                                                  C:/Users/jon_000/Git/ALFRED_CORE/Release/arduino.ar(WString.cpp.o)
memmove                                           c:/arduino/hardware/tools/g++_arm_none_eabi/bin/../lib/gcc/arm-none-eabi/4.4.1/../../../../arm-none-eabi/lib/thumb2\libc.a(lib_a-memmove.o)
                                                  c:/arduino/hardware/tools/g++_arm_none_eabi/bin/../lib/gcc/arm-none-eabi/4.4.1/../../../../arm-none-eabi/lib/thumb2\libc.a(lib_a-fvwrite.o)
                                                  c:/arduino/hardware/tools/g++_arm_none_eabi/bin/../lib/gcc/arm-none-eabi/4.4.1/../../../../arm-none-eabi/lib/thumb2\libc.a(lib_a-svfprintf.o)
                                                  c:/arduino/hardware/tools/g++_arm_none_eabi/bin/../lib/gcc/arm-none-eabi/4.4.1/../../../../arm-none-eabi/lib/thumb2\libc.a(lib_a-reallocr.o)
                                                  C:/Users/jon_000/Git/ALFRED_CORE/Release/arduino.ar(WString.cpp.o)
memset                                            c:/arduino/hardware/tools/g++_arm_none_eabi/bin/../lib/gcc/arm-none-eabi/4.4.1/../../../../arm-none-eabi/lib/thumb2\libc.a(lib_a-memset.o)
                                                  c:/arduino/hardware/tools/g++_arm_none_eabi/bin/../lib/gcc/arm-none-eabi/4.4.1/../../../../arm-none-eabi/lib/thumb2\libc.a(lib_a-callocr.o)
                                                  c:/arduino/hardware/tools/g++_arm_none_eabi/bin/../lib/gcc/arm-none-eabi/4.4.1/../../../../arm-none-eabi/lib/thumb2\libc.a(lib_a-findfp.o)
                                                  C:/Users/jon_000/Git/ALFRED_CORE/Release/arduino.ar(USBCore.cpp.o)
                                                  C:/Users/jon_000/Git/ALFRED_CORE/Release/arduino.ar(RingBuffer.cpp.o)
                                                  ./ALFRED_CORE.cpp.o
micros                                            C:/Users/jon_000/Git/ALFRED_CORE/Release/arduino.ar(wiring.c.o)
millis                                            C:/Users/jon_000/Git/ALFRED_CORE/Release/arduino.ar(wiring.c.o)
                                                  C:/Users/jon_000/Git/ALFRED_CORE/Release/arduino.ar(CDC.cpp.o)
                                                  C:/Users/jon_000/Git/ALFRED_CORE/Release/arduino.ar(Stream.cpp.o)
operator+(StringSumHelper const&, String const&)  C:/Users/jon_000/Git/ALFRED_CORE/Release/arduino.ar(WString.cpp.o)
operator+(StringSumHelper const&, __FlashStringHelper const*) C:/Users/jon_000/Git/ALFRED_CORE/Release/arduino.ar(WString.cpp.o)
operator+(StringSumHelper const&, char const*)    C:/Users/jon_000/Git/ALFRED_CORE/Release/arduino.ar(WString.cpp.o)
operator+(StringSumHelper const&, char)           C:/Users/jon_000/Git/ALFRED_CORE/Release/arduino.ar(WString.cpp.o)
operator+(StringSumHelper const&, double)         C:/Users/jon_000/Git/ALFRED_CORE/Release/arduino.ar(WString.cpp.o)
operator+(StringSumHelper const&, float)          C:/Users/jon_000/Git/ALFRED_CORE/Release/arduino.ar(WString.cpp.o)
operator+(StringSumHelper const&, int)            C:/Users/jon_000/Git/ALFRED_CORE/Release/arduino.ar(WString.cpp.o)
operator+(StringSumHelper const&, long)           C:/Users/jon_000/Git/ALFRED_CORE/Release/arduino.ar(WString.cpp.o)
operator+(StringSumHelper const&, unsigned char)  C:/Users/jon_000/Git/ALFRED_CORE/Release/arduino.ar(WString.cpp.o)
operator+(StringSumHelper const&, unsigned int)   C:/Users/jon_000/Git/ALFRED_CORE/Release/arduino.ar(WString.cpp.o)
operator+(StringSumHelper const&, unsigned long)  C:/Users/jon_000/Git/ALFRED_CORE/Release/arduino.ar(WString.cpp.o)
parseCommand(char*, int*, unsigned char)          ./ALFRED_CORE.cpp.o
pendSVHook                                        C:/Users/jon_000/Git/ALFRED_CORE/Release/arduino.ar(hooks.c.o)
                                                  C:/Users/jon_000/Git/ALFRED_CORE/Release/arduino.ar(cortex_handlers.c.o)
pinMode                                           C:/Users/jon_000/Git/ALFRED_CORE/Release/arduino.ar(wiring_digital.c.o)
                                                  C:/Users/jon_000/Git/ALFRED_CORE/Release/arduino.ar(wiring_analog.c.o)
                                                  ./ALFRED_CORE.cpp.o
pmc_clr_fast_startup_input                        C:/Arduino/hardware/arduino/sam/variants/arduino_due_x/libsam_sam3x8e_gcc_rel.a(pmc.o)
pmc_disable_all_pck                               C:/Arduino/hardware/arduino/sam/variants/arduino_due_x/libsam_sam3x8e_gcc_rel.a(pmc.o)
pmc_disable_all_periph_clk                        C:/Arduino/hardware/arduino/sam/variants/arduino_due_x/libsam_sam3x8e_gcc_rel.a(pmc.o)
pmc_disable_interrupt                             C:/Arduino/hardware/arduino/sam/variants/arduino_due_x/libsam_sam3x8e_gcc_rel.a(pmc.o)
pmc_disable_pck                                   C:/Arduino/hardware/arduino/sam/variants/arduino_due_x/libsam_sam3x8e_gcc_rel.a(pmc.o)
pmc_disable_periph_clk                            C:/Arduino/hardware/arduino/sam/variants/arduino_due_x/libsam_sam3x8e_gcc_rel.a(pmc.o)
                                                  C:/Users/jon_000/Git/ALFRED_CORE/Release/arduino.ar(wiring_digital.c.o)
                                                  C:/Users/jon_000/Git/ALFRED_CORE/Release/arduino.ar(USARTClass.cpp.o)
                                                  C:/Users/jon_000/Git/ALFRED_CORE/Release/arduino.ar(UARTClass.cpp.o)
pmc_disable_pllack                                C:/Arduino/hardware/arduino/sam/variants/arduino_due_x/libsam_sam3x8e_gcc_rel.a(pmc.o)
pmc_disable_udpck                                 C:/Arduino/hardware/arduino/sam/variants/arduino_due_x/libsam_sam3x8e_gcc_rel.a(pmc.o)
pmc_disable_upll_clock                            C:/Arduino/hardware/arduino/sam/variants/arduino_due_x/libsam_sam3x8e_gcc_rel.a(pmc.o)
pmc_enable_all_pck                                C:/Arduino/hardware/arduino/sam/variants/arduino_due_x/libsam_sam3x8e_gcc_rel.a(pmc.o)
pmc_enable_all_periph_clk                         C:/Arduino/hardware/arduino/sam/variants/arduino_due_x/libsam_sam3x8e_gcc_rel.a(pmc.o)
pmc_enable_backupmode                             C:/Arduino/hardware/arduino/sam/variants/arduino_due_x/libsam_sam3x8e_gcc_rel.a(pmc.o)
pmc_enable_interrupt                              C:/Arduino/hardware/arduino/sam/variants/arduino_due_x/libsam_sam3x8e_gcc_rel.a(pmc.o)
pmc_enable_pck                                    C:/Arduino/hardware/arduino/sam/variants/arduino_due_x/libsam_sam3x8e_gcc_rel.a(pmc.o)
pmc_enable_periph_clk                             C:/Arduino/hardware/arduino/sam/variants/arduino_due_x/libsam_sam3x8e_gcc_rel.a(pmc.o)
                                                  C:/Arduino/hardware/arduino/sam/variants/arduino_due_x/libsam_sam3x8e_gcc_rel.a(uotghs_device.o)
                                                  C:/Users/jon_000/Git/ALFRED_CORE/Release/arduino.ar(WInterrupts.c.o)
                                                  C:/Users/jon_000/Git/ALFRED_CORE/Release/arduino.ar(wiring_digital.c.o)
                                                  C:/Users/jon_000/Git/ALFRED_CORE/Release/arduino.ar(wiring_analog.c.o)
                                                  C:/Users/jon_000/Git/ALFRED_CORE/Release/arduino.ar(USARTClass.cpp.o)
                                                  C:/Users/jon_000/Git/ALFRED_CORE/Release/arduino.ar(UARTClass.cpp.o)
                                                  C:/Users/jon_000/Git/ALFRED_CORE/Release/arduino.ar(variant.cpp.o)
                                                  ./Libraries/DueTimer/DueTimer.cpp.o
                                                  ./Libraries/Wire/Wire.cpp.o
pmc_enable_pllack                                 C:/Arduino/hardware/arduino/sam/variants/arduino_due_x/libsam_sam3x8e_gcc_rel.a(pmc.o)
pmc_enable_sleepmode                              C:/Arduino/hardware/arduino/sam/variants/arduino_due_x/libsam_sam3x8e_gcc_rel.a(pmc.o)
pmc_enable_udpck                                  C:/Arduino/hardware/arduino/sam/variants/arduino_due_x/libsam_sam3x8e_gcc_rel.a(pmc.o)
                                                  C:/Arduino/hardware/arduino/sam/variants/arduino_due_x/libsam_sam3x8e_gcc_rel.a(uotghs_device.o)
pmc_enable_upll_clock                             C:/Arduino/hardware/arduino/sam/variants/arduino_due_x/libsam_sam3x8e_gcc_rel.a(pmc.o)
                                                  C:/Arduino/hardware/arduino/sam/variants/arduino_due_x/libsam_sam3x8e_gcc_rel.a(uotghs_device.o)
pmc_enable_waitmode                               C:/Arduino/hardware/arduino/sam/variants/arduino_due_x/libsam_sam3x8e_gcc_rel.a(pmc.o)
pmc_get_interrupt_mask                            C:/Arduino/hardware/arduino/sam/variants/arduino_due_x/libsam_sam3x8e_gcc_rel.a(pmc.o)
pmc_get_status                                    C:/Arduino/hardware/arduino/sam/variants/arduino_due_x/libsam_sam3x8e_gcc_rel.a(pmc.o)
pmc_get_writeprotect_status                       C:/Arduino/hardware/arduino/sam/variants/arduino_due_x/libsam_sam3x8e_gcc_rel.a(pmc.o)
pmc_is_locked_pllack                              C:/Arduino/hardware/arduino/sam/variants/arduino_due_x/libsam_sam3x8e_gcc_rel.a(pmc.o)
pmc_is_locked_upll                                C:/Arduino/hardware/arduino/sam/variants/arduino_due_x/libsam_sam3x8e_gcc_rel.a(pmc.o)
pmc_is_pck_enabled                                C:/Arduino/hardware/arduino/sam/variants/arduino_due_x/libsam_sam3x8e_gcc_rel.a(pmc.o)
pmc_is_periph_clk_enabled                         C:/Arduino/hardware/arduino/sam/variants/arduino_due_x/libsam_sam3x8e_gcc_rel.a(pmc.o)
pmc_mck_set_prescaler                             C:/Arduino/hardware/arduino/sam/variants/arduino_due_x/libsam_sam3x8e_gcc_rel.a(pmc.o)
pmc_mck_set_source                                C:/Arduino/hardware/arduino/sam/variants/arduino_due_x/libsam_sam3x8e_gcc_rel.a(pmc.o)
pmc_osc_disable_fastrc                            C:/Arduino/hardware/arduino/sam/variants/arduino_due_x/libsam_sam3x8e_gcc_rel.a(pmc.o)
pmc_osc_disable_xtal                              C:/Arduino/hardware/arduino/sam/variants/arduino_due_x/libsam_sam3x8e_gcc_rel.a(pmc.o)
pmc_osc_enable_fastrc                             C:/Arduino/hardware/arduino/sam/variants/arduino_due_x/libsam_sam3x8e_gcc_rel.a(pmc.o)
pmc_osc_is_ready_32kxtal                          C:/Arduino/hardware/arduino/sam/variants/arduino_due_x/libsam_sam3x8e_gcc_rel.a(pmc.o)
pmc_osc_is_ready_mainck                           C:/Arduino/hardware/arduino/sam/variants/arduino_due_x/libsam_sam3x8e_gcc_rel.a(pmc.o)
pmc_pck_set_prescaler                             C:/Arduino/hardware/arduino/sam/variants/arduino_due_x/libsam_sam3x8e_gcc_rel.a(pmc.o)
pmc_pck_set_source                                C:/Arduino/hardware/arduino/sam/variants/arduino_due_x/libsam_sam3x8e_gcc_rel.a(pmc.o)
pmc_set_fast_startup_input                        C:/Arduino/hardware/arduino/sam/variants/arduino_due_x/libsam_sam3x8e_gcc_rel.a(pmc.o)
pmc_set_writeprotect                              C:/Arduino/hardware/arduino/sam/variants/arduino_due_x/libsam_sam3x8e_gcc_rel.a(pmc.o)
                                                  ./Libraries/DueTimer/DueTimer.cpp.o
pmc_switch_mainck_to_fastrc                       C:/Arduino/hardware/arduino/sam/variants/arduino_due_x/libsam_sam3x8e_gcc_rel.a(pmc.o)
pmc_switch_mainck_to_xtal                         C:/Arduino/hardware/arduino/sam/variants/arduino_due_x/libsam_sam3x8e_gcc_rel.a(pmc.o)
pmc_switch_mck_to_mainck                          C:/Arduino/hardware/arduino/sam/variants/arduino_due_x/libsam_sam3x8e_gcc_rel.a(pmc.o)
pmc_switch_mck_to_pllack                          C:/Arduino/hardware/arduino/sam/variants/arduino_due_x/libsam_sam3x8e_gcc_rel.a(pmc.o)
pmc_switch_mck_to_sclk                            C:/Arduino/hardware/arduino/sam/variants/arduino_due_x/libsam_sam3x8e_gcc_rel.a(pmc.o)
pmc_switch_mck_to_upllck                          C:/Arduino/hardware/arduino/sam/variants/arduino_due_x/libsam_sam3x8e_gcc_rel.a(pmc.o)
pmc_switch_pck_to_mainck                          C:/Arduino/hardware/arduino/sam/variants/arduino_due_x/libsam_sam3x8e_gcc_rel.a(pmc.o)
pmc_switch_pck_to_pllack                          C:/Arduino/hardware/arduino/sam/variants/arduino_due_x/libsam_sam3x8e_gcc_rel.a(pmc.o)
pmc_switch_pck_to_sclk                            C:/Arduino/hardware/arduino/sam/variants/arduino_due_x/libsam_sam3x8e_gcc_rel.a(pmc.o)
pmc_switch_pck_to_upllck                          C:/Arduino/hardware/arduino/sam/variants/arduino_due_x/libsam_sam3x8e_gcc_rel.a(pmc.o)
pmc_switch_sclk_to_32kxtal                        C:/Arduino/hardware/arduino/sam/variants/arduino_due_x/libsam_sam3x8e_gcc_rel.a(pmc.o)
pmc_switch_udpck_to_pllack                        C:/Arduino/hardware/arduino/sam/variants/arduino_due_x/libsam_sam3x8e_gcc_rel.a(pmc.o)
pmc_switch_udpck_to_upllck                        C:/Arduino/hardware/arduino/sam/variants/arduino_due_x/libsam_sam3x8e_gcc_rel.a(pmc.o)
                                                  C:/Arduino/hardware/arduino/sam/variants/arduino_due_x/libsam_sam3x8e_gcc_rel.a(uotghs_device.o)
power_servos                                      ./ALFRED_CORE.cpp.o
pwmL                                              ./ALFRED_CORE.cpp.o
pwmR                                              ./ALFRED_CORE.cpp.o
raise                                             c:/arduino/hardware/tools/g++_arm_none_eabi/bin/../lib/gcc/arm-none-eabi/4.4.1/../../../../arm-none-eabi/lib/thumb2\libc.a(lib_a-signal.o)
                                                  c:/arduino/hardware/tools/g++_arm_none_eabi/bin/../lib/gcc/arm-none-eabi/4.4.1/../../../../arm-none-eabi/lib/thumb2\libc.a(lib_a-abort.o)
realloc                                           c:/arduino/hardware/tools/g++_arm_none_eabi/bin/../lib/gcc/arm-none-eabi/4.4.1/../../../../arm-none-eabi/lib/thumb2\libc.a(lib_a-realloc.o)
                                                  C:/Users/jon_000/Git/ALFRED_CORE/Release/arduino.ar(WString.cpp.o)
reset()                                           ./ALFRED_CORE.cpp.o
rx_buffer1                                        C:/Users/jon_000/Git/ALFRED_CORE/Release/arduino.ar(variant.cpp.o)
rx_buffer2                                        C:/Users/jon_000/Git/ALFRED_CORE/Release/arduino.ar(variant.cpp.o)
rx_buffer3                                        C:/Users/jon_000/Git/ALFRED_CORE/Release/arduino.ar(variant.cpp.o)
rx_buffer4                                        C:/Users/jon_000/Git/ALFRED_CORE/Release/arduino.ar(variant.cpp.o)
serialData                                        ./ALFRED_CORE.cpp.o
serialEvent()                                     C:/Users/jon_000/Git/ALFRED_CORE/Release/arduino.ar(variant.cpp.o)
serialEvent1()                                    C:/Users/jon_000/Git/ALFRED_CORE/Release/arduino.ar(variant.cpp.o)
serialEvent2()                                    C:/Users/jon_000/Git/ALFRED_CORE/Release/arduino.ar(variant.cpp.o)
serialEvent3()                                    C:/Users/jon_000/Git/ALFRED_CORE/Release/arduino.ar(variant.cpp.o)
serialEventRun()                                  C:/Users/jon_000/Git/ALFRED_CORE/Release/arduino.ar(variant.cpp.o)
                                                  C:/Users/jon_000/Git/ALFRED_CORE/Release/arduino.ar(main.cpp.o)
servonum                                          ./ALFRED_CORE.cpp.o
setlocale                                         c:/arduino/hardware/tools/g++_arm_none_eabi/bin/../lib/gcc/arm-none-eabi/4.4.1/../../../../arm-none-eabi/lib/thumb2\libc.a(lib_a-locale.o)
setup                                             ./ALFRED_CORE.cpp.o
                                                  C:/Users/jon_000/Git/ALFRED_CORE/Release/arduino.ar(main.cpp.o)
signal                                            c:/arduino/hardware/tools/g++_arm_none_eabi/bin/../lib/gcc/arm-none-eabi/4.4.1/../../../../arm-none-eabi/lib/thumb2\libc.a(lib_a-signal.o)
sprintf                                           c:/arduino/hardware/tools/g++_arm_none_eabi/bin/../lib/gcc/arm-none-eabi/4.4.1/../../../../arm-none-eabi/lib/thumb2\libc.a(lib_a-sprintf.o)
                                                  C:/Users/jon_000/Git/ALFRED_CORE/Release/arduino.ar(dtostrf.c.o)
strchr                                            c:/arduino/hardware/tools/g++_arm_none_eabi/bin/../lib/gcc/arm-none-eabi/4.4.1/../../../../arm-none-eabi/lib/thumb2\libc.a(lib_a-strchr.o)
                                                  c:/arduino/hardware/tools/g++_arm_none_eabi/bin/../lib/gcc/arm-none-eabi/4.4.1/../../../../arm-none-eabi/lib/thumb2\libc.a(lib_a-strstr.o)
                                                  c:/arduino/hardware/tools/g++_arm_none_eabi/bin/../lib/gcc/arm-none-eabi/4.4.1/../../../../arm-none-eabi/lib/thumb2\libc.a(lib_a-strrchr.o)
                                                  C:/Users/jon_000/Git/ALFRED_CORE/Release/arduino.ar(WString.cpp.o)
strcmp                                            c:/arduino/hardware/tools/g++_arm_none_eabi/bin/../lib/gcc/arm-none-eabi/4.4.1/../../../../arm-none-eabi/lib/thumb2\libc.a(lib_a-strcmp.o)
                                                  c:/arduino/hardware/tools/g++_arm_none_eabi/bin/../lib/gcc/arm-none-eabi/4.4.1/../../../../arm-none-eabi/lib/thumb2\libc.a(lib_a-locale.o)
                                                  C:/Users/jon_000/Git/ALFRED_CORE/Release/arduino.ar(WString.cpp.o)
strcpy                                            c:/arduino/hardware/tools/g++_arm_none_eabi/bin/../lib/gcc/arm-none-eabi/4.4.1/../../../../arm-none-eabi/lib/thumb2\libc.a(lib_a-strcpy.o)
                                                  C:/Users/jon_000/Git/ALFRED_CORE/Release/arduino.ar(WString.cpp.o)
strlen                                            c:/arduino/hardware/tools/g++_arm_none_eabi/bin/../lib/gcc/arm-none-eabi/4.4.1/../../../../arm-none-eabi/lib/thumb2\libc.a(lib_a-strlen.o)
                                                  c:/arduino/hardware/tools/g++_arm_none_eabi/bin/../lib/gcc/arm-none-eabi/4.4.1/../../../../arm-none-eabi/lib/thumb2\libc.a(lib_a-vfiprintf.o)
                                                  c:/arduino/hardware/tools/g++_arm_none_eabi/bin/../lib/gcc/arm-none-eabi/4.4.1/../../../../arm-none-eabi/lib/thumb2\libc.a(lib_a-svfprintf.o)
                                                  C:/Users/jon_000/Git/ALFRED_CORE/Release/arduino.ar(WString.cpp.o)
                                                  C:/Users/jon_000/Git/ALFRED_CORE/Release/arduino.ar(Stream.cpp.o)
                                                  C:/Users/jon_000/Git/ALFRED_CORE/Release/arduino.ar(Print.cpp.o)
strncmp                                           c:/arduino/hardware/tools/g++_arm_none_eabi/bin/../lib/gcc/arm-none-eabi/4.4.1/../../../../arm-none-eabi/lib/thumb2\libc.a(lib_a-strncmp.o)
                                                  C:/Users/jon_000/Git/ALFRED_CORE/Release/arduino.ar(WString.cpp.o)
strncpy                                           c:/arduino/hardware/tools/g++_arm_none_eabi/bin/../lib/gcc/arm-none-eabi/4.4.1/../../../../arm-none-eabi/lib/thumb2\libc.a(lib_a-strncpy.o)
                                                  C:/Users/jon_000/Git/ALFRED_CORE/Release/arduino.ar(WString.cpp.o)
strrchr                                           c:/arduino/hardware/tools/g++_arm_none_eabi/bin/../lib/gcc/arm-none-eabi/4.4.1/../../../../arm-none-eabi/lib/thumb2\libc.a(lib_a-strrchr.o)
                                                  C:/Users/jon_000/Git/ALFRED_CORE/Release/arduino.ar(WString.cpp.o)
strstr                                            c:/arduino/hardware/tools/g++_arm_none_eabi/bin/../lib/gcc/arm-none-eabi/4.4.1/../../../../arm-none-eabi/lib/thumb2\libc.a(lib_a-strstr.o)
                                                  C:/Users/jon_000/Git/ALFRED_CORE/Release/arduino.ar(WString.cpp.o)
strtod                                            c:/arduino/hardware/tools/g++_arm_none_eabi/bin/../lib/gcc/arm-none-eabi/4.4.1/../../../../arm-none-eabi/lib/thumb2\libc.a(lib_a-strtod.o)
                                                  c:/arduino/hardware/tools/g++_arm_none_eabi/bin/../lib/gcc/arm-none-eabi/4.4.1/../../../../arm-none-eabi/lib/thumb2\libc.a(lib_a-atof.o)
strtof                                            c:/arduino/hardware/tools/g++_arm_none_eabi/bin/../lib/gcc/arm-none-eabi/4.4.1/../../../../arm-none-eabi/lib/thumb2\libc.a(lib_a-strtod.o)
strtol                                            c:/arduino/hardware/tools/g++_arm_none_eabi/bin/../lib/gcc/arm-none-eabi/4.4.1/../../../../arm-none-eabi/lib/thumb2\libc.a(lib_a-strtol.o)
                                                  c:/arduino/hardware/tools/g++_arm_none_eabi/bin/../lib/gcc/arm-none-eabi/4.4.1/../../../../arm-none-eabi/lib/thumb2\libc.a(lib_a-atol.o)
svcHook                                           C:/Users/jon_000/Git/ALFRED_CORE/Release/arduino.ar(hooks.c.o)
                                                  C:/Users/jon_000/Git/ALFRED_CORE/Release/arduino.ar(cortex_handlers.c.o)
sysTickHook                                       C:/Users/jon_000/Git/ALFRED_CORE/Release/arduino.ar(hooks.c.o)
                                                  C:/Users/jon_000/Git/ALFRED_CORE/Release/arduino.ar(cortex_handlers.c.o)
system_init_flash                                 C:/Arduino/hardware/arduino/sam/variants/arduino_due_x/libsam_sam3x8e_gcc_rel.a(system_sam3xa.o)
tickReset                                         C:/Users/jon_000/Git/ALFRED_CORE/Release/arduino.ar(Reset.cpp.o)
                                                  C:/Users/jon_000/Git/ALFRED_CORE/Release/arduino.ar(cortex_handlers.c.o)
timeout_handler()                                 ./ALFRED_CORE.cpp.o
timerCounter                                      ./ALFRED_CORE.cpp.o
tolower                                           c:/arduino/hardware/tools/g++_arm_none_eabi/bin/../lib/gcc/arm-none-eabi/4.4.1/../../../../arm-none-eabi/lib/thumb2\libc.a(lib_a-tolower.o)
                                                  C:/Users/jon_000/Git/ALFRED_CORE/Release/arduino.ar(WString.cpp.o)
toupper                                           c:/arduino/hardware/tools/g++_arm_none_eabi/bin/../lib/gcc/arm-none-eabi/4.4.1/../../../../arm-none-eabi/lib/thumb2\libc.a(lib_a-toupper.o)
                                                  C:/Users/jon_000/Git/ALFRED_CORE/Release/arduino.ar(WString.cpp.o)
ultoa                                             C:/Users/jon_000/Git/ALFRED_CORE/Release/arduino.ar(itoa.c.o)
                                                  C:/Users/jon_000/Git/ALFRED_CORE/Release/arduino.ar(WString.cpp.o)
utoa                                              C:/Users/jon_000/Git/ALFRED_CORE/Release/arduino.ar(itoa.c.o)
                                                  C:/Users/jon_000/Git/ALFRED_CORE/Release/arduino.ar(WString.cpp.o)
vfiprintf                                         c:/arduino/hardware/tools/g++_arm_none_eabi/bin/../lib/gcc/arm-none-eabi/4.4.1/../../../../arm-none-eabi/lib/thumb2\libc.a(lib_a-vfiprintf.o)
vtable for HardwareSerial                         C:/Users/jon_000/Git/ALFRED_CORE/Release/arduino.ar(UARTClass.cpp.o)
                                                  C:/Users/jon_000/Git/ALFRED_CORE/Release/arduino.ar(USARTClass.cpp.o)
vtable for Keyboard_                              C:/Users/jon_000/Git/ALFRED_CORE/Release/arduino.ar(HID.cpp.o)
vtable for Print                                  C:/Users/jon_000/Git/ALFRED_CORE/Release/arduino.ar(Print.cpp.o)
vtable for Serial_                                C:/Users/jon_000/Git/ALFRED_CORE/Release/arduino.ar(CDC.cpp.o)
vtable for Stream                                 ./Libraries/Wire/Wire.cpp.o
                                                  C:/Users/jon_000/Git/ALFRED_CORE/Release/arduino.ar(CDC.cpp.o)
                                                  C:/Users/jon_000/Git/ALFRED_CORE/Release/arduino.ar(USARTClass.cpp.o)
                                                  C:/Users/jon_000/Git/ALFRED_CORE/Release/arduino.ar(UARTClass.cpp.o)
vtable for TwoWire                                ./Libraries/Wire/Wire.cpp.o
vtable for UARTClass                              C:/Users/jon_000/Git/ALFRED_CORE/Release/arduino.ar(UARTClass.cpp.o)
vtable for USARTClass                             C:/Users/jon_000/Git/ALFRED_CORE/Release/arduino.ar(USARTClass.cpp.o)
yield                                             C:/Users/jon_000/Git/ALFRED_CORE/Release/arduino.ar(hooks.c.o)
                                                  C:/Users/jon_000/Git/ALFRED_CORE/Release/arduino.ar(wiring.c.o)
